; ModuleID = 'vector.bc'
source_filename = "vector.cpp"
target datalayout = "e-m:e-i64:64-f80:128-n8:16:32:64-S128"
target triple = "x86_64-pc-linux-gnu"

%"class.std::vector" = type { %"struct.std::_Vector_base" }
%"struct.std::_Vector_base" = type { %"struct.std::_Vector_base<int, std::allocator<int> >::_Vector_impl" }
%"struct.std::_Vector_base<int, std::allocator<int> >::_Vector_impl" = type { i32*, i32*, i32* }
%"class.std::allocator" = type { i8 }
%"class.__gnu_cxx::new_allocator" = type { i8 }
%"class.__gnu_cxx::__normal_iterator" = type { i32* }
%"class.std::move_iterator" = type { i32* }

$_ZNSt6vectorIiSaIiEEC2Ev = comdat any

$_ZNSt6vectorIiSaIiEE9push_backEOi = comdat any

$_ZNSt6vectorIiSaIiEE2atEm = comdat any

$_ZNSt6vectorIiSaIiEED2Ev = comdat any

$_ZNSt12_Vector_baseIiSaIiEEC2Ev = comdat any

$__clang_call_terminate = comdat any

$_ZNSt12_Vector_baseIiSaIiEE12_Vector_implC2Ev = comdat any

$_ZNSaIiEC2Ev = comdat any

$_ZN9__gnu_cxx13new_allocatorIiEC2Ev = comdat any

$_ZSt8_DestroyIPiiEvT_S1_RSaIT0_E = comdat any

$_ZNSt12_Vector_baseIiSaIiEE19_M_get_Tp_allocatorEv = comdat any

$_ZNSt12_Vector_baseIiSaIiEED2Ev = comdat any

$_ZSt8_DestroyIPiEvT_S1_ = comdat any

$_ZNSt12_Destroy_auxILb1EE9__destroyIPiEEvT_S3_ = comdat any

$_ZNSt12_Vector_baseIiSaIiEE13_M_deallocateEPim = comdat any

$_ZNSt12_Vector_baseIiSaIiEE12_Vector_implD2Ev = comdat any

$_ZNSt16allocator_traitsISaIiEE10deallocateERS0_Pim = comdat any

$_ZN9__gnu_cxx13new_allocatorIiE10deallocateEPim = comdat any

$_ZNSaIiED2Ev = comdat any

$_ZN9__gnu_cxx13new_allocatorIiED2Ev = comdat any

$_ZNSt6vectorIiSaIiEE12emplace_backIJiEEEvDpOT_ = comdat any

$_ZSt4moveIRiEONSt16remove_referenceIT_E4typeEOS2_ = comdat any

$_ZNSt16allocator_traitsISaIiEE9constructIiJiEEEvRS0_PT_DpOT0_ = comdat any

$_ZSt7forwardIiEOT_RNSt16remove_referenceIS0_E4typeE = comdat any

$_ZNSt6vectorIiSaIiEE17_M_realloc_insertIJiEEEvN9__gnu_cxx17__normal_iteratorIPiS1_EEDpOT_ = comdat any

$_ZNSt6vectorIiSaIiEE3endEv = comdat any

$_ZN9__gnu_cxx13new_allocatorIiE9constructIiJiEEEvPT_DpOT0_ = comdat any

$_ZNKSt6vectorIiSaIiEE12_M_check_lenEmPKc = comdat any

$_ZN9__gnu_cxxmiIPiSt6vectorIiSaIiEEEENS_17__normal_iteratorIT_T0_E15difference_typeERKS8_SB_ = comdat any

$_ZNSt6vectorIiSaIiEE5beginEv = comdat any

$_ZNSt12_Vector_baseIiSaIiEE11_M_allocateEm = comdat any

$_ZSt34__uninitialized_move_if_noexcept_aIPiS0_SaIiEET0_T_S3_S2_RT1_ = comdat any

$_ZNK9__gnu_cxx17__normal_iteratorIPiSt6vectorIiSaIiEEE4baseEv = comdat any

$_ZNSt16allocator_traitsISaIiEE7destroyIiEEvRS0_PT_ = comdat any

$_ZNKSt6vectorIiSaIiEE8max_sizeEv = comdat any

$_ZNKSt6vectorIiSaIiEE4sizeEv = comdat any

$_ZSt3maxImERKT_S2_S2_ = comdat any

$_ZNSt16allocator_traitsISaIiEE8max_sizeERKS0_ = comdat any

$_ZNKSt12_Vector_baseIiSaIiEE19_M_get_Tp_allocatorEv = comdat any

$_ZNK9__gnu_cxx13new_allocatorIiE8max_sizeEv = comdat any

$_ZN9__gnu_cxx17__normal_iteratorIPiSt6vectorIiSaIiEEEC2ERKS1_ = comdat any

$_ZNSt16allocator_traitsISaIiEE8allocateERS0_m = comdat any

$_ZN9__gnu_cxx13new_allocatorIiE8allocateEmPKv = comdat any

$_ZSt22__uninitialized_copy_aISt13move_iteratorIPiES1_iET0_T_S4_S3_RSaIT1_E = comdat any

$_ZSt32__make_move_if_noexcept_iteratorIiSt13move_iteratorIPiEET0_PT_ = comdat any

$_ZSt18uninitialized_copyISt13move_iteratorIPiES1_ET0_T_S4_S3_ = comdat any

$_ZNSt20__uninitialized_copyILb1EE13__uninit_copyISt13move_iteratorIPiES3_EET0_T_S6_S5_ = comdat any

$_ZSt4copyISt13move_iteratorIPiES1_ET0_T_S4_S3_ = comdat any

$_ZSt14__copy_move_a2ILb1EPiS0_ET1_T0_S2_S1_ = comdat any

$_ZSt12__miter_baseIPiEDTcl12__miter_basecldtfp_4baseEEESt13move_iteratorIT_E = comdat any

$_ZSt13__copy_move_aILb1EPiS0_ET1_T0_S2_S1_ = comdat any

$_ZSt12__niter_baseIPiET_S1_ = comdat any

$_ZNSt11__copy_moveILb1ELb1ESt26random_access_iterator_tagE8__copy_mIiEEPT_PKS3_S6_S4_ = comdat any

$_ZSt12__miter_baseIPiET_S1_ = comdat any

$_ZNKSt13move_iteratorIPiE4baseEv = comdat any

$_ZNSt13move_iteratorIPiEC2ES0_ = comdat any

$_ZN9__gnu_cxx13new_allocatorIiE7destroyIiEEvPT_ = comdat any

$_ZNKSt6vectorIiSaIiEE14_M_range_checkEm = comdat any

$_ZNSt6vectorIiSaIiEEixEm = comdat any

@.str = private unnamed_addr constant [5 x i8] c"Test\00", align 1
@.str.1 = private unnamed_addr constant [26 x i8] c"vector::_M_realloc_insert\00", align 1
@.str.2 = private unnamed_addr constant [74 x i8] c"vector::_M_range_check: __n (which is %zu) >= this->size() (which is %zu)\00", align 1

; Function Attrs: noinline norecurse uwtable
define i32 @main(i32, i8**) #0 personality i8* bitcast (i32 (...)* @__gxx_personality_v0 to i8*) !dbg !622 {
  %3 = alloca i32, align 4
  %4 = alloca i32, align 4
  %5 = alloca i8**, align 8
  %6 = alloca %"class.std::vector", align 8
  %7 = alloca i32, align 4
  %8 = alloca i8*
  %9 = alloca i32
  store i32 0, i32* %3, align 4
  store i32 %0, i32* %4, align 4
  call void @llvm.dbg.declare(metadata i32* %4, metadata !627, metadata !DIExpression()), !dbg !628
  store i8** %1, i8*** %5, align 8
  call void @llvm.dbg.declare(metadata i8*** %5, metadata !629, metadata !DIExpression()), !dbg !630
  call void @llvm.dbg.declare(metadata %"class.std::vector"* %6, metadata !631, metadata !DIExpression()), !dbg !632
  call void @_ZNSt6vectorIiSaIiEEC2Ev(%"class.std::vector"* %6) #10, !dbg !632
  %10 = call i32 @klee_int(i8* getelementptr inbounds ([5 x i8], [5 x i8]* @.str, i32 0, i32 0)), !dbg !633
  store i32 %10, i32* %7, align 4, !dbg !633
  invoke void @_ZNSt6vectorIiSaIiEE9push_backEOi(%"class.std::vector"* %6, i32* dereferenceable(4) %7)
          to label %11 unwind label %16, !dbg !634

; <label>:11:                                     ; preds = %2
  %12 = invoke dereferenceable(4) i32* @_ZNSt6vectorIiSaIiEE2atEm(%"class.std::vector"* %6, i64 0)
          to label %13 unwind label %16, !dbg !635

; <label>:13:                                     ; preds = %11
  %14 = load i32, i32* %12, align 4, !dbg !635
  store i32 %14, i32* %3, align 4, !dbg !636
  call void @_ZNSt6vectorIiSaIiEED2Ev(%"class.std::vector"* %6) #10, !dbg !637
  %15 = load i32, i32* %3, align 4, !dbg !637
  ret i32 %15, !dbg !637

; <label>:16:                                     ; preds = %11, %2
  %17 = landingpad { i8*, i32 }
          cleanup, !dbg !637
  %18 = extractvalue { i8*, i32 } %17, 0, !dbg !637
  store i8* %18, i8** %8, align 8, !dbg !637
  %19 = extractvalue { i8*, i32 } %17, 1, !dbg !637
  store i32 %19, i32* %9, align 4, !dbg !637
  call void @_ZNSt6vectorIiSaIiEED2Ev(%"class.std::vector"* %6) #10, !dbg !637
  %20 = load i8*, i8** %8, align 8, !dbg !637
  %21 = load i32, i32* %9, align 4, !dbg !637
  %22 = insertvalue { i8*, i32 } undef, i8* %20, 0, !dbg !637
  %23 = insertvalue { i8*, i32 } %22, i32 %21, 1, !dbg !637
  resume { i8*, i32 } %23, !dbg !637
}

; Function Attrs: nounwind readnone speculatable
declare void @llvm.dbg.declare(metadata, metadata, metadata) #1

; Function Attrs: noinline nounwind uwtable
define linkonce_odr void @_ZNSt6vectorIiSaIiEEC2Ev(%"class.std::vector"*) unnamed_addr #2 comdat align 2 personality i8* bitcast (i32 (...)* @__gxx_personality_v0 to i8*) !dbg !638 {
  %2 = alloca %"class.std::vector"*, align 8
  store %"class.std::vector"* %0, %"class.std::vector"** %2, align 8
  call void @llvm.dbg.declare(metadata %"class.std::vector"** %2, metadata !639, metadata !DIExpression()), !dbg !641
  %3 = load %"class.std::vector"*, %"class.std::vector"** %2, align 8
  %4 = bitcast %"class.std::vector"* %3 to %"struct.std::_Vector_base"*, !dbg !642
  invoke void @_ZNSt12_Vector_baseIiSaIiEEC2Ev(%"struct.std::_Vector_base"* %4)
          to label %5 unwind label %6, !dbg !643

; <label>:5:                                      ; preds = %1
  ret void, !dbg !644

; <label>:6:                                      ; preds = %1
  %7 = landingpad { i8*, i32 }
          catch i8* null, !dbg !643
  %8 = extractvalue { i8*, i32 } %7, 0, !dbg !643
  call void @__clang_call_terminate(i8* %8) #11, !dbg !643
  unreachable, !dbg !643
}

; Function Attrs: noinline uwtable
define linkonce_odr void @_ZNSt6vectorIiSaIiEE9push_backEOi(%"class.std::vector"*, i32* dereferenceable(4)) #3 comdat align 2 !dbg !645 {
  %3 = alloca %"class.std::vector"*, align 8
  %4 = alloca i32*, align 8
  store %"class.std::vector"* %0, %"class.std::vector"** %3, align 8
  call void @llvm.dbg.declare(metadata %"class.std::vector"** %3, metadata !646, metadata !DIExpression()), !dbg !647
  store i32* %1, i32** %4, align 8
  call void @llvm.dbg.declare(metadata i32** %4, metadata !648, metadata !DIExpression()), !dbg !649
  %5 = load %"class.std::vector"*, %"class.std::vector"** %3, align 8
  %6 = load i32*, i32** %4, align 8, !dbg !650
  %7 = call dereferenceable(4) i32* @_ZSt4moveIRiEONSt16remove_referenceIT_E4typeEOS2_(i32* dereferenceable(4) %6) #10, !dbg !651
  call void @_ZNSt6vectorIiSaIiEE12emplace_backIJiEEEvDpOT_(%"class.std::vector"* %5, i32* dereferenceable(4) %7), !dbg !652
  ret void, !dbg !653
}

declare i32 @__gxx_personality_v0(...)

; Function Attrs: noinline uwtable
define linkonce_odr dereferenceable(4) i32* @_ZNSt6vectorIiSaIiEE2atEm(%"class.std::vector"*, i64) #3 comdat align 2 !dbg !654 {
  %3 = alloca %"class.std::vector"*, align 8
  %4 = alloca i64, align 8
  store %"class.std::vector"* %0, %"class.std::vector"** %3, align 8
  call void @llvm.dbg.declare(metadata %"class.std::vector"** %3, metadata !655, metadata !DIExpression()), !dbg !656
  store i64 %1, i64* %4, align 8
  call void @llvm.dbg.declare(metadata i64* %4, metadata !657, metadata !DIExpression()), !dbg !658
  %5 = load %"class.std::vector"*, %"class.std::vector"** %3, align 8
  %6 = load i64, i64* %4, align 8, !dbg !659
  call void @_ZNKSt6vectorIiSaIiEE14_M_range_checkEm(%"class.std::vector"* %5, i64 %6), !dbg !660
  %7 = load i64, i64* %4, align 8, !dbg !661
  %8 = call dereferenceable(4) i32* @_ZNSt6vectorIiSaIiEEixEm(%"class.std::vector"* %5, i64 %7) #10, !dbg !662
  ret i32* %8, !dbg !663
}

; Function Attrs: noinline nounwind uwtable
define linkonce_odr void @_ZNSt6vectorIiSaIiEED2Ev(%"class.std::vector"*) unnamed_addr #2 comdat align 2 personality i8* bitcast (i32 (...)* @__gxx_personality_v0 to i8*) !dbg !664 {
  %2 = alloca %"class.std::vector"*, align 8
  %3 = alloca i8*
  %4 = alloca i32
  store %"class.std::vector"* %0, %"class.std::vector"** %2, align 8
  call void @llvm.dbg.declare(metadata %"class.std::vector"** %2, metadata !665, metadata !DIExpression()), !dbg !666
  %5 = load %"class.std::vector"*, %"class.std::vector"** %2, align 8
  %6 = bitcast %"class.std::vector"* %5 to %"struct.std::_Vector_base"*, !dbg !667
  %7 = getelementptr inbounds %"struct.std::_Vector_base", %"struct.std::_Vector_base"* %6, i32 0, i32 0, !dbg !667
  %8 = getelementptr inbounds %"struct.std::_Vector_base<int, std::allocator<int> >::_Vector_impl", %"struct.std::_Vector_base<int, std::allocator<int> >::_Vector_impl"* %7, i32 0, i32 0, !dbg !669
  %9 = load i32*, i32** %8, align 8, !dbg !669
  %10 = bitcast %"class.std::vector"* %5 to %"struct.std::_Vector_base"*, !dbg !670
  %11 = getelementptr inbounds %"struct.std::_Vector_base", %"struct.std::_Vector_base"* %10, i32 0, i32 0, !dbg !670
  %12 = getelementptr inbounds %"struct.std::_Vector_base<int, std::allocator<int> >::_Vector_impl", %"struct.std::_Vector_base<int, std::allocator<int> >::_Vector_impl"* %11, i32 0, i32 1, !dbg !671
  %13 = load i32*, i32** %12, align 8, !dbg !671
  %14 = bitcast %"class.std::vector"* %5 to %"struct.std::_Vector_base"*, !dbg !672
  %15 = call dereferenceable(1) %"class.std::allocator"* @_ZNSt12_Vector_baseIiSaIiEE19_M_get_Tp_allocatorEv(%"struct.std::_Vector_base"* %14) #10, !dbg !672
  invoke void @_ZSt8_DestroyIPiiEvT_S1_RSaIT0_E(i32* %9, i32* %13, %"class.std::allocator"* dereferenceable(1) %15)
          to label %16 unwind label %18, !dbg !673

; <label>:16:                                     ; preds = %1
  %17 = bitcast %"class.std::vector"* %5 to %"struct.std::_Vector_base"*, !dbg !674
  call void @_ZNSt12_Vector_baseIiSaIiEED2Ev(%"struct.std::_Vector_base"* %17) #10, !dbg !674
  ret void, !dbg !675

; <label>:18:                                     ; preds = %1
  %19 = landingpad { i8*, i32 }
          catch i8* null, !dbg !674
  %20 = extractvalue { i8*, i32 } %19, 0, !dbg !674
  store i8* %20, i8** %3, align 8, !dbg !674
  %21 = extractvalue { i8*, i32 } %19, 1, !dbg !674
  store i32 %21, i32* %4, align 4, !dbg !674
  %22 = bitcast %"class.std::vector"* %5 to %"struct.std::_Vector_base"*, !dbg !674
  call void @_ZNSt12_Vector_baseIiSaIiEED2Ev(%"struct.std::_Vector_base"* %22) #10, !dbg !674
  %23 = load i8*, i8** %3, align 8, !dbg !674
  call void @__clang_call_terminate(i8* %23) #11, !dbg !674
  unreachable, !dbg !674
}

; Function Attrs: noinline uwtable
define linkonce_odr void @_ZNSt12_Vector_baseIiSaIiEEC2Ev(%"struct.std::_Vector_base"*) unnamed_addr #3 comdat align 2 !dbg !676 {
  %2 = alloca %"struct.std::_Vector_base"*, align 8
  store %"struct.std::_Vector_base"* %0, %"struct.std::_Vector_base"** %2, align 8
  call void @llvm.dbg.declare(metadata %"struct.std::_Vector_base"** %2, metadata !677, metadata !DIExpression()), !dbg !679
  %3 = load %"struct.std::_Vector_base"*, %"struct.std::_Vector_base"** %2, align 8
  %4 = getelementptr inbounds %"struct.std::_Vector_base", %"struct.std::_Vector_base"* %3, i32 0, i32 0, !dbg !680
  call void @_ZNSt12_Vector_baseIiSaIiEE12_Vector_implC2Ev(%"struct.std::_Vector_base<int, std::allocator<int> >::_Vector_impl"* %4), !dbg !680
  ret void, !dbg !681
}

; Function Attrs: noinline noreturn nounwind
define linkonce_odr hidden void @__clang_call_terminate(i8*) #4 comdat {
  %2 = call i8* @__cxa_begin_catch(i8* %0) #10
  call void @_ZSt9terminatev() #11
  unreachable
}

declare i8* @__cxa_begin_catch(i8*)

declare void @_ZSt9terminatev()

; Function Attrs: noinline nounwind uwtable
define linkonce_odr void @_ZNSt12_Vector_baseIiSaIiEE12_Vector_implC2Ev(%"struct.std::_Vector_base<int, std::allocator<int> >::_Vector_impl"*) unnamed_addr #2 comdat align 2 !dbg !682 {
  %2 = alloca %"struct.std::_Vector_base<int, std::allocator<int> >::_Vector_impl"*, align 8
  store %"struct.std::_Vector_base<int, std::allocator<int> >::_Vector_impl"* %0, %"struct.std::_Vector_base<int, std::allocator<int> >::_Vector_impl"** %2, align 8
  call void @llvm.dbg.declare(metadata %"struct.std::_Vector_base<int, std::allocator<int> >::_Vector_impl"** %2, metadata !683, metadata !DIExpression()), !dbg !685
  %3 = load %"struct.std::_Vector_base<int, std::allocator<int> >::_Vector_impl"*, %"struct.std::_Vector_base<int, std::allocator<int> >::_Vector_impl"** %2, align 8
  %4 = bitcast %"struct.std::_Vector_base<int, std::allocator<int> >::_Vector_impl"* %3 to %"class.std::allocator"*, !dbg !686
  call void @_ZNSaIiEC2Ev(%"class.std::allocator"* %4) #10, !dbg !687
  %5 = getelementptr inbounds %"struct.std::_Vector_base<int, std::allocator<int> >::_Vector_impl", %"struct.std::_Vector_base<int, std::allocator<int> >::_Vector_impl"* %3, i32 0, i32 0, !dbg !688
  store i32* null, i32** %5, align 8, !dbg !688
  %6 = getelementptr inbounds %"struct.std::_Vector_base<int, std::allocator<int> >::_Vector_impl", %"struct.std::_Vector_base<int, std::allocator<int> >::_Vector_impl"* %3, i32 0, i32 1, !dbg !689
  store i32* null, i32** %6, align 8, !dbg !689
  %7 = getelementptr inbounds %"struct.std::_Vector_base<int, std::allocator<int> >::_Vector_impl", %"struct.std::_Vector_base<int, std::allocator<int> >::_Vector_impl"* %3, i32 0, i32 2, !dbg !690
  store i32* null, i32** %7, align 8, !dbg !690
  ret void, !dbg !691
}

; Function Attrs: noinline nounwind uwtable
define linkonce_odr void @_ZNSaIiEC2Ev(%"class.std::allocator"*) unnamed_addr #2 comdat align 2 !dbg !692 {
  %2 = alloca %"class.std::allocator"*, align 8
  store %"class.std::allocator"* %0, %"class.std::allocator"** %2, align 8
  call void @llvm.dbg.declare(metadata %"class.std::allocator"** %2, metadata !693, metadata !DIExpression()), !dbg !695
  %3 = load %"class.std::allocator"*, %"class.std::allocator"** %2, align 8
  %4 = bitcast %"class.std::allocator"* %3 to %"class.__gnu_cxx::new_allocator"*, !dbg !696
  call void @_ZN9__gnu_cxx13new_allocatorIiEC2Ev(%"class.__gnu_cxx::new_allocator"* %4) #10, !dbg !697
  ret void, !dbg !698
}

; Function Attrs: noinline nounwind uwtable
define linkonce_odr void @_ZN9__gnu_cxx13new_allocatorIiEC2Ev(%"class.__gnu_cxx::new_allocator"*) unnamed_addr #2 comdat align 2 !dbg !699 {
  %2 = alloca %"class.__gnu_cxx::new_allocator"*, align 8
  store %"class.__gnu_cxx::new_allocator"* %0, %"class.__gnu_cxx::new_allocator"** %2, align 8
  call void @llvm.dbg.declare(metadata %"class.__gnu_cxx::new_allocator"** %2, metadata !700, metadata !DIExpression()), !dbg !702
  %3 = load %"class.__gnu_cxx::new_allocator"*, %"class.__gnu_cxx::new_allocator"** %2, align 8
  ret void, !dbg !703
}

; Function Attrs: noinline uwtable
define linkonce_odr void @_ZSt8_DestroyIPiiEvT_S1_RSaIT0_E(i32*, i32*, %"class.std::allocator"* dereferenceable(1)) #3 comdat !dbg !704 {
  %4 = alloca i32*, align 8
  %5 = alloca i32*, align 8
  %6 = alloca %"class.std::allocator"*, align 8
  store i32* %0, i32** %4, align 8
  call void @llvm.dbg.declare(metadata i32** %4, metadata !710, metadata !DIExpression()), !dbg !711
  store i32* %1, i32** %5, align 8
  call void @llvm.dbg.declare(metadata i32** %5, metadata !712, metadata !DIExpression()), !dbg !713
  store %"class.std::allocator"* %2, %"class.std::allocator"** %6, align 8
  call void @llvm.dbg.declare(metadata %"class.std::allocator"** %6, metadata !714, metadata !DIExpression()), !dbg !715
  %7 = load i32*, i32** %4, align 8, !dbg !716
  %8 = load i32*, i32** %5, align 8, !dbg !717
  call void @_ZSt8_DestroyIPiEvT_S1_(i32* %7, i32* %8), !dbg !718
  ret void, !dbg !719
}

; Function Attrs: noinline nounwind uwtable
define linkonce_odr dereferenceable(1) %"class.std::allocator"* @_ZNSt12_Vector_baseIiSaIiEE19_M_get_Tp_allocatorEv(%"struct.std::_Vector_base"*) #2 comdat align 2 !dbg !720 {
  %2 = alloca %"struct.std::_Vector_base"*, align 8
  store %"struct.std::_Vector_base"* %0, %"struct.std::_Vector_base"** %2, align 8
  call void @llvm.dbg.declare(metadata %"struct.std::_Vector_base"** %2, metadata !721, metadata !DIExpression()), !dbg !722
  %3 = load %"struct.std::_Vector_base"*, %"struct.std::_Vector_base"** %2, align 8
  %4 = getelementptr inbounds %"struct.std::_Vector_base", %"struct.std::_Vector_base"* %3, i32 0, i32 0, !dbg !723
  %5 = bitcast %"struct.std::_Vector_base<int, std::allocator<int> >::_Vector_impl"* %4 to %"class.std::allocator"*, !dbg !724
  ret %"class.std::allocator"* %5, !dbg !725
}

; Function Attrs: noinline nounwind uwtable
define linkonce_odr void @_ZNSt12_Vector_baseIiSaIiEED2Ev(%"struct.std::_Vector_base"*) unnamed_addr #2 comdat align 2 personality i8* bitcast (i32 (...)* @__gxx_personality_v0 to i8*) !dbg !726 {
  %2 = alloca %"struct.std::_Vector_base"*, align 8
  %3 = alloca i8*
  %4 = alloca i32
  store %"struct.std::_Vector_base"* %0, %"struct.std::_Vector_base"** %2, align 8
  call void @llvm.dbg.declare(metadata %"struct.std::_Vector_base"** %2, metadata !727, metadata !DIExpression()), !dbg !728
  %5 = load %"struct.std::_Vector_base"*, %"struct.std::_Vector_base"** %2, align 8
  %6 = getelementptr inbounds %"struct.std::_Vector_base", %"struct.std::_Vector_base"* %5, i32 0, i32 0, !dbg !729
  %7 = getelementptr inbounds %"struct.std::_Vector_base<int, std::allocator<int> >::_Vector_impl", %"struct.std::_Vector_base<int, std::allocator<int> >::_Vector_impl"* %6, i32 0, i32 0, !dbg !731
  %8 = load i32*, i32** %7, align 8, !dbg !731
  %9 = getelementptr inbounds %"struct.std::_Vector_base", %"struct.std::_Vector_base"* %5, i32 0, i32 0, !dbg !732
  %10 = getelementptr inbounds %"struct.std::_Vector_base<int, std::allocator<int> >::_Vector_impl", %"struct.std::_Vector_base<int, std::allocator<int> >::_Vector_impl"* %9, i32 0, i32 2, !dbg !733
  %11 = load i32*, i32** %10, align 8, !dbg !733
  %12 = getelementptr inbounds %"struct.std::_Vector_base", %"struct.std::_Vector_base"* %5, i32 0, i32 0, !dbg !734
  %13 = getelementptr inbounds %"struct.std::_Vector_base<int, std::allocator<int> >::_Vector_impl", %"struct.std::_Vector_base<int, std::allocator<int> >::_Vector_impl"* %12, i32 0, i32 0, !dbg !735
  %14 = load i32*, i32** %13, align 8, !dbg !735
  %15 = ptrtoint i32* %11 to i64, !dbg !736
  %16 = ptrtoint i32* %14 to i64, !dbg !736
  %17 = sub i64 %15, %16, !dbg !736
  %18 = sdiv exact i64 %17, 4, !dbg !736
  invoke void @_ZNSt12_Vector_baseIiSaIiEE13_M_deallocateEPim(%"struct.std::_Vector_base"* %5, i32* %8, i64 %18)
          to label %19 unwind label %21, !dbg !737

; <label>:19:                                     ; preds = %1
  %20 = getelementptr inbounds %"struct.std::_Vector_base", %"struct.std::_Vector_base"* %5, i32 0, i32 0, !dbg !738
  call void @_ZNSt12_Vector_baseIiSaIiEE12_Vector_implD2Ev(%"struct.std::_Vector_base<int, std::allocator<int> >::_Vector_impl"* %20) #10, !dbg !738
  ret void, !dbg !739

; <label>:21:                                     ; preds = %1
  %22 = landingpad { i8*, i32 }
          catch i8* null, !dbg !738
  %23 = extractvalue { i8*, i32 } %22, 0, !dbg !738
  store i8* %23, i8** %3, align 8, !dbg !738
  %24 = extractvalue { i8*, i32 } %22, 1, !dbg !738
  store i32 %24, i32* %4, align 4, !dbg !738
  %25 = getelementptr inbounds %"struct.std::_Vector_base", %"struct.std::_Vector_base"* %5, i32 0, i32 0, !dbg !738
  call void @_ZNSt12_Vector_baseIiSaIiEE12_Vector_implD2Ev(%"struct.std::_Vector_base<int, std::allocator<int> >::_Vector_impl"* %25) #10, !dbg !738
  %26 = load i8*, i8** %3, align 8, !dbg !738
  call void @__clang_call_terminate(i8* %26) #11, !dbg !738
  unreachable, !dbg !738
}

; Function Attrs: noinline uwtable
define linkonce_odr void @_ZSt8_DestroyIPiEvT_S1_(i32*, i32*) #3 comdat !dbg !740 {
  %3 = alloca i32*, align 8
  %4 = alloca i32*, align 8
  store i32* %0, i32** %3, align 8
  call void @llvm.dbg.declare(metadata i32** %3, metadata !744, metadata !DIExpression()), !dbg !745
  store i32* %1, i32** %4, align 8
  call void @llvm.dbg.declare(metadata i32** %4, metadata !746, metadata !DIExpression()), !dbg !747
  %5 = load i32*, i32** %3, align 8, !dbg !748
  %6 = load i32*, i32** %4, align 8, !dbg !749
  call void @_ZNSt12_Destroy_auxILb1EE9__destroyIPiEEvT_S3_(i32* %5, i32* %6), !dbg !750
  ret void, !dbg !751
}

; Function Attrs: noinline nounwind uwtable
define linkonce_odr void @_ZNSt12_Destroy_auxILb1EE9__destroyIPiEEvT_S3_(i32*, i32*) #2 comdat align 2 !dbg !752 {
  %3 = alloca i32*, align 8
  %4 = alloca i32*, align 8
  store i32* %0, i32** %3, align 8
  call void @llvm.dbg.declare(metadata i32** %3, metadata !757, metadata !DIExpression()), !dbg !758
  store i32* %1, i32** %4, align 8
  call void @llvm.dbg.declare(metadata i32** %4, metadata !759, metadata !DIExpression()), !dbg !760
  ret void, !dbg !761
}

; Function Attrs: noinline uwtable
define linkonce_odr void @_ZNSt12_Vector_baseIiSaIiEE13_M_deallocateEPim(%"struct.std::_Vector_base"*, i32*, i64) #3 comdat align 2 !dbg !762 {
  %4 = alloca %"struct.std::_Vector_base"*, align 8
  %5 = alloca i32*, align 8
  %6 = alloca i64, align 8
  store %"struct.std::_Vector_base"* %0, %"struct.std::_Vector_base"** %4, align 8
  call void @llvm.dbg.declare(metadata %"struct.std::_Vector_base"** %4, metadata !763, metadata !DIExpression()), !dbg !764
  store i32* %1, i32** %5, align 8
  call void @llvm.dbg.declare(metadata i32** %5, metadata !765, metadata !DIExpression()), !dbg !766
  store i64 %2, i64* %6, align 8
  call void @llvm.dbg.declare(metadata i64* %6, metadata !767, metadata !DIExpression()), !dbg !768
  %7 = load %"struct.std::_Vector_base"*, %"struct.std::_Vector_base"** %4, align 8
  %8 = load i32*, i32** %5, align 8, !dbg !769
  %9 = icmp ne i32* %8, null, !dbg !769
  br i1 %9, label %10, label %15, !dbg !771

; <label>:10:                                     ; preds = %3
  %11 = getelementptr inbounds %"struct.std::_Vector_base", %"struct.std::_Vector_base"* %7, i32 0, i32 0, !dbg !772
  %12 = bitcast %"struct.std::_Vector_base<int, std::allocator<int> >::_Vector_impl"* %11 to %"class.std::allocator"*, !dbg !772
  %13 = load i32*, i32** %5, align 8, !dbg !773
  %14 = load i64, i64* %6, align 8, !dbg !774
  call void @_ZNSt16allocator_traitsISaIiEE10deallocateERS0_Pim(%"class.std::allocator"* dereferenceable(1) %12, i32* %13, i64 %14), !dbg !775
  br label %15, !dbg !775

; <label>:15:                                     ; preds = %10, %3
  ret void, !dbg !776
}

; Function Attrs: noinline nounwind uwtable
define linkonce_odr void @_ZNSt12_Vector_baseIiSaIiEE12_Vector_implD2Ev(%"struct.std::_Vector_base<int, std::allocator<int> >::_Vector_impl"*) unnamed_addr #2 comdat align 2 !dbg !777 {
  %2 = alloca %"struct.std::_Vector_base<int, std::allocator<int> >::_Vector_impl"*, align 8
  store %"struct.std::_Vector_base<int, std::allocator<int> >::_Vector_impl"* %0, %"struct.std::_Vector_base<int, std::allocator<int> >::_Vector_impl"** %2, align 8
  call void @llvm.dbg.declare(metadata %"struct.std::_Vector_base<int, std::allocator<int> >::_Vector_impl"** %2, metadata !779, metadata !DIExpression()), !dbg !780
  %3 = load %"struct.std::_Vector_base<int, std::allocator<int> >::_Vector_impl"*, %"struct.std::_Vector_base<int, std::allocator<int> >::_Vector_impl"** %2, align 8
  %4 = bitcast %"struct.std::_Vector_base<int, std::allocator<int> >::_Vector_impl"* %3 to %"class.std::allocator"*, !dbg !781
  call void @_ZNSaIiED2Ev(%"class.std::allocator"* %4) #10, !dbg !781
  ret void, !dbg !783
}

; Function Attrs: noinline uwtable
define linkonce_odr void @_ZNSt16allocator_traitsISaIiEE10deallocateERS0_Pim(%"class.std::allocator"* dereferenceable(1), i32*, i64) #3 comdat align 2 !dbg !784 {
  %4 = alloca %"class.std::allocator"*, align 8
  %5 = alloca i32*, align 8
  %6 = alloca i64, align 8
  store %"class.std::allocator"* %0, %"class.std::allocator"** %4, align 8
  call void @llvm.dbg.declare(metadata %"class.std::allocator"** %4, metadata !785, metadata !DIExpression()), !dbg !786
  store i32* %1, i32** %5, align 8
  call void @llvm.dbg.declare(metadata i32** %5, metadata !787, metadata !DIExpression()), !dbg !788
  store i64 %2, i64* %6, align 8
  call void @llvm.dbg.declare(metadata i64* %6, metadata !789, metadata !DIExpression()), !dbg !790
  %7 = load %"class.std::allocator"*, %"class.std::allocator"** %4, align 8, !dbg !791
  %8 = bitcast %"class.std::allocator"* %7 to %"class.__gnu_cxx::new_allocator"*, !dbg !791
  %9 = load i32*, i32** %5, align 8, !dbg !792
  %10 = load i64, i64* %6, align 8, !dbg !793
  call void @_ZN9__gnu_cxx13new_allocatorIiE10deallocateEPim(%"class.__gnu_cxx::new_allocator"* %8, i32* %9, i64 %10), !dbg !794
  ret void, !dbg !795
}

; Function Attrs: noinline nounwind uwtable
define linkonce_odr void @_ZN9__gnu_cxx13new_allocatorIiE10deallocateEPim(%"class.__gnu_cxx::new_allocator"*, i32*, i64) #2 comdat align 2 !dbg !796 {
  %4 = alloca %"class.__gnu_cxx::new_allocator"*, align 8
  %5 = alloca i32*, align 8
  %6 = alloca i64, align 8
  store %"class.__gnu_cxx::new_allocator"* %0, %"class.__gnu_cxx::new_allocator"** %4, align 8
  call void @llvm.dbg.declare(metadata %"class.__gnu_cxx::new_allocator"** %4, metadata !797, metadata !DIExpression()), !dbg !798
  store i32* %1, i32** %5, align 8
  call void @llvm.dbg.declare(metadata i32** %5, metadata !799, metadata !DIExpression()), !dbg !800
  store i64 %2, i64* %6, align 8
  call void @llvm.dbg.declare(metadata i64* %6, metadata !801, metadata !DIExpression()), !dbg !802
  %7 = load %"class.__gnu_cxx::new_allocator"*, %"class.__gnu_cxx::new_allocator"** %4, align 8
  %8 = load i32*, i32** %5, align 8, !dbg !803
  %9 = bitcast i32* %8 to i8*, !dbg !803
  call void @_ZdlPv(i8* %9) #10, !dbg !804
  ret void, !dbg !805
}

; Function Attrs: nobuiltin nounwind
declare void @_ZdlPv(i8*) #5

; Function Attrs: noinline nounwind uwtable
define linkonce_odr void @_ZNSaIiED2Ev(%"class.std::allocator"*) unnamed_addr #2 comdat align 2 !dbg !806 {
  %2 = alloca %"class.std::allocator"*, align 8
  store %"class.std::allocator"* %0, %"class.std::allocator"** %2, align 8
  call void @llvm.dbg.declare(metadata %"class.std::allocator"** %2, metadata !807, metadata !DIExpression()), !dbg !808
  %3 = load %"class.std::allocator"*, %"class.std::allocator"** %2, align 8
  %4 = bitcast %"class.std::allocator"* %3 to %"class.__gnu_cxx::new_allocator"*, !dbg !809
  call void @_ZN9__gnu_cxx13new_allocatorIiED2Ev(%"class.__gnu_cxx::new_allocator"* %4) #10, !dbg !809
  ret void, !dbg !811
}

; Function Attrs: noinline nounwind uwtable
define linkonce_odr void @_ZN9__gnu_cxx13new_allocatorIiED2Ev(%"class.__gnu_cxx::new_allocator"*) unnamed_addr #2 comdat align 2 !dbg !812 {
  %2 = alloca %"class.__gnu_cxx::new_allocator"*, align 8
  store %"class.__gnu_cxx::new_allocator"* %0, %"class.__gnu_cxx::new_allocator"** %2, align 8
  call void @llvm.dbg.declare(metadata %"class.__gnu_cxx::new_allocator"** %2, metadata !813, metadata !DIExpression()), !dbg !814
  %3 = load %"class.__gnu_cxx::new_allocator"*, %"class.__gnu_cxx::new_allocator"** %2, align 8
  ret void, !dbg !815
}

; Function Attrs: noinline uwtable
define linkonce_odr void @_ZNSt6vectorIiSaIiEE12emplace_backIJiEEEvDpOT_(%"class.std::vector"*, i32* dereferenceable(4)) #3 comdat align 2 !dbg !816 {
  %3 = alloca %"class.std::vector"*, align 8
  %4 = alloca i32*, align 8
  %5 = alloca %"class.__gnu_cxx::__normal_iterator", align 8
  store %"class.std::vector"* %0, %"class.std::vector"** %3, align 8
  call void @llvm.dbg.declare(metadata %"class.std::vector"** %3, metadata !824, metadata !DIExpression()), !dbg !825
  store i32* %1, i32** %4, align 8
  call void @llvm.dbg.declare(metadata i32** %4, metadata !826, metadata !DIExpression()), !dbg !827
  %6 = load %"class.std::vector"*, %"class.std::vector"** %3, align 8
  %7 = bitcast %"class.std::vector"* %6 to %"struct.std::_Vector_base"*, !dbg !828
  %8 = getelementptr inbounds %"struct.std::_Vector_base", %"struct.std::_Vector_base"* %7, i32 0, i32 0, !dbg !828
  %9 = getelementptr inbounds %"struct.std::_Vector_base<int, std::allocator<int> >::_Vector_impl", %"struct.std::_Vector_base<int, std::allocator<int> >::_Vector_impl"* %8, i32 0, i32 1, !dbg !830
  %10 = load i32*, i32** %9, align 8, !dbg !830
  %11 = bitcast %"class.std::vector"* %6 to %"struct.std::_Vector_base"*, !dbg !831
  %12 = getelementptr inbounds %"struct.std::_Vector_base", %"struct.std::_Vector_base"* %11, i32 0, i32 0, !dbg !831
  %13 = getelementptr inbounds %"struct.std::_Vector_base<int, std::allocator<int> >::_Vector_impl", %"struct.std::_Vector_base<int, std::allocator<int> >::_Vector_impl"* %12, i32 0, i32 2, !dbg !832
  %14 = load i32*, i32** %13, align 8, !dbg !832
  %15 = icmp ne i32* %10, %14, !dbg !833
  br i1 %15, label %16, label %31, !dbg !834

; <label>:16:                                     ; preds = %2
  %17 = bitcast %"class.std::vector"* %6 to %"struct.std::_Vector_base"*, !dbg !835
  %18 = getelementptr inbounds %"struct.std::_Vector_base", %"struct.std::_Vector_base"* %17, i32 0, i32 0, !dbg !835
  %19 = bitcast %"struct.std::_Vector_base<int, std::allocator<int> >::_Vector_impl"* %18 to %"class.std::allocator"*, !dbg !837
  %20 = bitcast %"class.std::vector"* %6 to %"struct.std::_Vector_base"*, !dbg !838
  %21 = getelementptr inbounds %"struct.std::_Vector_base", %"struct.std::_Vector_base"* %20, i32 0, i32 0, !dbg !838
  %22 = getelementptr inbounds %"struct.std::_Vector_base<int, std::allocator<int> >::_Vector_impl", %"struct.std::_Vector_base<int, std::allocator<int> >::_Vector_impl"* %21, i32 0, i32 1, !dbg !839
  %23 = load i32*, i32** %22, align 8, !dbg !839
  %24 = load i32*, i32** %4, align 8, !dbg !840
  %25 = call dereferenceable(4) i32* @_ZSt7forwardIiEOT_RNSt16remove_referenceIS0_E4typeE(i32* dereferenceable(4) %24) #10, !dbg !841
  call void @_ZNSt16allocator_traitsISaIiEE9constructIiJiEEEvRS0_PT_DpOT0_(%"class.std::allocator"* dereferenceable(1) %19, i32* %23, i32* dereferenceable(4) %25), !dbg !842
  %26 = bitcast %"class.std::vector"* %6 to %"struct.std::_Vector_base"*, !dbg !843
  %27 = getelementptr inbounds %"struct.std::_Vector_base", %"struct.std::_Vector_base"* %26, i32 0, i32 0, !dbg !843
  %28 = getelementptr inbounds %"struct.std::_Vector_base<int, std::allocator<int> >::_Vector_impl", %"struct.std::_Vector_base<int, std::allocator<int> >::_Vector_impl"* %27, i32 0, i32 1, !dbg !844
  %29 = load i32*, i32** %28, align 8, !dbg !845
  %30 = getelementptr inbounds i32, i32* %29, i32 1, !dbg !845
  store i32* %30, i32** %28, align 8, !dbg !845
  br label %38, !dbg !846

; <label>:31:                                     ; preds = %2
  %32 = call i32* @_ZNSt6vectorIiSaIiEE3endEv(%"class.std::vector"* %6) #10, !dbg !847
  %33 = getelementptr inbounds %"class.__gnu_cxx::__normal_iterator", %"class.__gnu_cxx::__normal_iterator"* %5, i32 0, i32 0, !dbg !847
  store i32* %32, i32** %33, align 8, !dbg !847
  %34 = load i32*, i32** %4, align 8, !dbg !848
  %35 = call dereferenceable(4) i32* @_ZSt7forwardIiEOT_RNSt16remove_referenceIS0_E4typeE(i32* dereferenceable(4) %34) #10, !dbg !849
  %36 = getelementptr inbounds %"class.__gnu_cxx::__normal_iterator", %"class.__gnu_cxx::__normal_iterator"* %5, i32 0, i32 0, !dbg !850
  %37 = load i32*, i32** %36, align 8, !dbg !850
  call void @_ZNSt6vectorIiSaIiEE17_M_realloc_insertIJiEEEvN9__gnu_cxx17__normal_iteratorIPiS1_EEDpOT_(%"class.std::vector"* %6, i32* %37, i32* dereferenceable(4) %35), !dbg !850
  br label %38

; <label>:38:                                     ; preds = %31, %16
  ret void, !dbg !851
}

; Function Attrs: noinline nounwind uwtable
define linkonce_odr dereferenceable(4) i32* @_ZSt4moveIRiEONSt16remove_referenceIT_E4typeEOS2_(i32* dereferenceable(4)) #2 comdat !dbg !852 {
  %2 = alloca i32*, align 8
  store i32* %0, i32** %2, align 8
  call void @llvm.dbg.declare(metadata i32** %2, metadata !861, metadata !DIExpression()), !dbg !862
  %3 = load i32*, i32** %2, align 8, !dbg !863
  ret i32* %3, !dbg !864
}

; Function Attrs: noinline uwtable
define linkonce_odr void @_ZNSt16allocator_traitsISaIiEE9constructIiJiEEEvRS0_PT_DpOT0_(%"class.std::allocator"* dereferenceable(1), i32*, i32* dereferenceable(4)) #3 comdat align 2 !dbg !865 {
  %4 = alloca %"class.std::allocator"*, align 8
  %5 = alloca i32*, align 8
  %6 = alloca i32*, align 8
  store %"class.std::allocator"* %0, %"class.std::allocator"** %4, align 8
  call void @llvm.dbg.declare(metadata %"class.std::allocator"** %4, metadata !871, metadata !DIExpression()), !dbg !872
  store i32* %1, i32** %5, align 8
  call void @llvm.dbg.declare(metadata i32** %5, metadata !873, metadata !DIExpression()), !dbg !874
  store i32* %2, i32** %6, align 8
  call void @llvm.dbg.declare(metadata i32** %6, metadata !875, metadata !DIExpression()), !dbg !876
  %7 = load %"class.std::allocator"*, %"class.std::allocator"** %4, align 8, !dbg !877
  %8 = bitcast %"class.std::allocator"* %7 to %"class.__gnu_cxx::new_allocator"*, !dbg !877
  %9 = load i32*, i32** %5, align 8, !dbg !878
  %10 = load i32*, i32** %6, align 8, !dbg !879
  %11 = call dereferenceable(4) i32* @_ZSt7forwardIiEOT_RNSt16remove_referenceIS0_E4typeE(i32* dereferenceable(4) %10) #10, !dbg !880
  call void @_ZN9__gnu_cxx13new_allocatorIiE9constructIiJiEEEvPT_DpOT0_(%"class.__gnu_cxx::new_allocator"* %8, i32* %9, i32* dereferenceable(4) %11), !dbg !881
  ret void, !dbg !882
}

; Function Attrs: noinline nounwind uwtable
define linkonce_odr dereferenceable(4) i32* @_ZSt7forwardIiEOT_RNSt16remove_referenceIS0_E4typeE(i32* dereferenceable(4)) #2 comdat !dbg !883 {
  %2 = alloca i32*, align 8
  store i32* %0, i32** %2, align 8
  call void @llvm.dbg.declare(metadata i32** %2, metadata !889, metadata !DIExpression()), !dbg !890
  %3 = load i32*, i32** %2, align 8, !dbg !891
  ret i32* %3, !dbg !892
}

; Function Attrs: noinline uwtable
define linkonce_odr void @_ZNSt6vectorIiSaIiEE17_M_realloc_insertIJiEEEvN9__gnu_cxx17__normal_iteratorIPiS1_EEDpOT_(%"class.std::vector"*, i32*, i32* dereferenceable(4)) #3 comdat align 2 personality i8* bitcast (i32 (...)* @__gxx_personality_v0 to i8*) !dbg !893 {
  %4 = alloca %"class.__gnu_cxx::__normal_iterator", align 8
  %5 = alloca %"class.std::vector"*, align 8
  %6 = alloca i32*, align 8
  %7 = alloca i64, align 8
  %8 = alloca i64, align 8
  %9 = alloca %"class.__gnu_cxx::__normal_iterator", align 8
  %10 = alloca i32*, align 8
  %11 = alloca i32*, align 8
  %12 = alloca i8*
  %13 = alloca i32
  %14 = getelementptr inbounds %"class.__gnu_cxx::__normal_iterator", %"class.__gnu_cxx::__normal_iterator"* %4, i32 0, i32 0
  store i32* %1, i32** %14, align 8
  store %"class.std::vector"* %0, %"class.std::vector"** %5, align 8
  call void @llvm.dbg.declare(metadata %"class.std::vector"** %5, metadata !897, metadata !DIExpression()), !dbg !898
  call void @llvm.dbg.declare(metadata %"class.__gnu_cxx::__normal_iterator"* %4, metadata !899, metadata !DIExpression()), !dbg !900
  store i32* %2, i32** %6, align 8
  call void @llvm.dbg.declare(metadata i32** %6, metadata !901, metadata !DIExpression()), !dbg !902
  %15 = load %"class.std::vector"*, %"class.std::vector"** %5, align 8
  call void @llvm.dbg.declare(metadata i64* %7, metadata !903, metadata !DIExpression()), !dbg !905
  %16 = call i64 @_ZNKSt6vectorIiSaIiEE12_M_check_lenEmPKc(%"class.std::vector"* %15, i64 1, i8* getelementptr inbounds ([26 x i8], [26 x i8]* @.str.1, i32 0, i32 0)), !dbg !906
  store i64 %16, i64* %7, align 8, !dbg !905
  call void @llvm.dbg.declare(metadata i64* %8, metadata !907, metadata !DIExpression()), !dbg !908
  %17 = call i32* @_ZNSt6vectorIiSaIiEE5beginEv(%"class.std::vector"* %15) #10, !dbg !909
  %18 = getelementptr inbounds %"class.__gnu_cxx::__normal_iterator", %"class.__gnu_cxx::__normal_iterator"* %9, i32 0, i32 0, !dbg !909
  store i32* %17, i32** %18, align 8, !dbg !909
  %19 = call i64 @_ZN9__gnu_cxxmiIPiSt6vectorIiSaIiEEEENS_17__normal_iteratorIT_T0_E15difference_typeERKS8_SB_(%"class.__gnu_cxx::__normal_iterator"* dereferenceable(8) %4, %"class.__gnu_cxx::__normal_iterator"* dereferenceable(8) %9) #10, !dbg !910
  store i64 %19, i64* %8, align 8, !dbg !908
  call void @llvm.dbg.declare(metadata i32** %10, metadata !911, metadata !DIExpression()), !dbg !912
  %20 = bitcast %"class.std::vector"* %15 to %"struct.std::_Vector_base"*, !dbg !913
  %21 = load i64, i64* %7, align 8, !dbg !914
  %22 = call i32* @_ZNSt12_Vector_baseIiSaIiEE11_M_allocateEm(%"struct.std::_Vector_base"* %20, i64 %21), !dbg !913
  store i32* %22, i32** %10, align 8, !dbg !912
  call void @llvm.dbg.declare(metadata i32** %11, metadata !915, metadata !DIExpression()), !dbg !916
  %23 = load i32*, i32** %10, align 8, !dbg !917
  store i32* %23, i32** %11, align 8, !dbg !916
  %24 = bitcast %"class.std::vector"* %15 to %"struct.std::_Vector_base"*, !dbg !918
  %25 = getelementptr inbounds %"struct.std::_Vector_base", %"struct.std::_Vector_base"* %24, i32 0, i32 0, !dbg !918
  %26 = bitcast %"struct.std::_Vector_base<int, std::allocator<int> >::_Vector_impl"* %25 to %"class.std::allocator"*, !dbg !920
  %27 = load i32*, i32** %10, align 8, !dbg !921
  %28 = load i64, i64* %8, align 8, !dbg !922
  %29 = getelementptr inbounds i32, i32* %27, i64 %28, !dbg !923
  %30 = load i32*, i32** %6, align 8, !dbg !924
  %31 = call dereferenceable(4) i32* @_ZSt7forwardIiEOT_RNSt16remove_referenceIS0_E4typeE(i32* dereferenceable(4) %30) #10, !dbg !925
  invoke void @_ZNSt16allocator_traitsISaIiEE9constructIiJiEEEvRS0_PT_DpOT0_(%"class.std::allocator"* dereferenceable(1) %26, i32* %29, i32* dereferenceable(4) %31)
          to label %32 unwind label %98, !dbg !926

; <label>:32:                                     ; preds = %3
  store i32* null, i32** %11, align 8, !dbg !927
  %33 = bitcast %"class.std::vector"* %15 to %"struct.std::_Vector_base"*, !dbg !928
  %34 = getelementptr inbounds %"struct.std::_Vector_base", %"struct.std::_Vector_base"* %33, i32 0, i32 0, !dbg !928
  %35 = getelementptr inbounds %"struct.std::_Vector_base<int, std::allocator<int> >::_Vector_impl", %"struct.std::_Vector_base<int, std::allocator<int> >::_Vector_impl"* %34, i32 0, i32 0, !dbg !929
  %36 = load i32*, i32** %35, align 8, !dbg !929
  %37 = call dereferenceable(8) i32** @_ZNK9__gnu_cxx17__normal_iteratorIPiSt6vectorIiSaIiEEE4baseEv(%"class.__gnu_cxx::__normal_iterator"* %4) #10, !dbg !930
  %38 = load i32*, i32** %37, align 8, !dbg !930
  %39 = load i32*, i32** %10, align 8, !dbg !931
  %40 = bitcast %"class.std::vector"* %15 to %"struct.std::_Vector_base"*, !dbg !932
  %41 = call dereferenceable(1) %"class.std::allocator"* @_ZNSt12_Vector_baseIiSaIiEE19_M_get_Tp_allocatorEv(%"struct.std::_Vector_base"* %40) #10, !dbg !932
  %42 = invoke i32* @_ZSt34__uninitialized_move_if_noexcept_aIPiS0_SaIiEET0_T_S3_S2_RT1_(i32* %36, i32* %38, i32* %39, %"class.std::allocator"* dereferenceable(1) %41)
          to label %43 unwind label %98, !dbg !933

; <label>:43:                                     ; preds = %32
  store i32* %42, i32** %11, align 8, !dbg !934
  %44 = load i32*, i32** %11, align 8, !dbg !935
  %45 = getelementptr inbounds i32, i32* %44, i32 1, !dbg !935
  store i32* %45, i32** %11, align 8, !dbg !935
  %46 = call dereferenceable(8) i32** @_ZNK9__gnu_cxx17__normal_iteratorIPiSt6vectorIiSaIiEEE4baseEv(%"class.__gnu_cxx::__normal_iterator"* %4) #10, !dbg !936
  %47 = load i32*, i32** %46, align 8, !dbg !936
  %48 = bitcast %"class.std::vector"* %15 to %"struct.std::_Vector_base"*, !dbg !937
  %49 = getelementptr inbounds %"struct.std::_Vector_base", %"struct.std::_Vector_base"* %48, i32 0, i32 0, !dbg !937
  %50 = getelementptr inbounds %"struct.std::_Vector_base<int, std::allocator<int> >::_Vector_impl", %"struct.std::_Vector_base<int, std::allocator<int> >::_Vector_impl"* %49, i32 0, i32 1, !dbg !938
  %51 = load i32*, i32** %50, align 8, !dbg !938
  %52 = load i32*, i32** %11, align 8, !dbg !939
  %53 = bitcast %"class.std::vector"* %15 to %"struct.std::_Vector_base"*, !dbg !940
  %54 = call dereferenceable(1) %"class.std::allocator"* @_ZNSt12_Vector_baseIiSaIiEE19_M_get_Tp_allocatorEv(%"struct.std::_Vector_base"* %53) #10, !dbg !940
  %55 = invoke i32* @_ZSt34__uninitialized_move_if_noexcept_aIPiS0_SaIiEET0_T_S3_S2_RT1_(i32* %47, i32* %51, i32* %52, %"class.std::allocator"* dereferenceable(1) %54)
          to label %56 unwind label %98, !dbg !941

; <label>:56:                                     ; preds = %43
  store i32* %55, i32** %11, align 8, !dbg !942
  %57 = bitcast %"class.std::vector"* %15 to %"struct.std::_Vector_base"*, !dbg !943
  %58 = getelementptr inbounds %"struct.std::_Vector_base", %"struct.std::_Vector_base"* %57, i32 0, i32 0, !dbg !943
  %59 = getelementptr inbounds %"struct.std::_Vector_base<int, std::allocator<int> >::_Vector_impl", %"struct.std::_Vector_base<int, std::allocator<int> >::_Vector_impl"* %58, i32 0, i32 0, !dbg !944
  %60 = load i32*, i32** %59, align 8, !dbg !944
  %61 = bitcast %"class.std::vector"* %15 to %"struct.std::_Vector_base"*, !dbg !945
  %62 = getelementptr inbounds %"struct.std::_Vector_base", %"struct.std::_Vector_base"* %61, i32 0, i32 0, !dbg !945
  %63 = getelementptr inbounds %"struct.std::_Vector_base<int, std::allocator<int> >::_Vector_impl", %"struct.std::_Vector_base<int, std::allocator<int> >::_Vector_impl"* %62, i32 0, i32 1, !dbg !946
  %64 = load i32*, i32** %63, align 8, !dbg !946
  %65 = bitcast %"class.std::vector"* %15 to %"struct.std::_Vector_base"*, !dbg !947
  %66 = call dereferenceable(1) %"class.std::allocator"* @_ZNSt12_Vector_baseIiSaIiEE19_M_get_Tp_allocatorEv(%"struct.std::_Vector_base"* %65) #10, !dbg !947
  call void @_ZSt8_DestroyIPiiEvT_S1_RSaIT0_E(i32* %60, i32* %64, %"class.std::allocator"* dereferenceable(1) %66), !dbg !948
  %67 = bitcast %"class.std::vector"* %15 to %"struct.std::_Vector_base"*, !dbg !949
  %68 = bitcast %"class.std::vector"* %15 to %"struct.std::_Vector_base"*, !dbg !950
  %69 = getelementptr inbounds %"struct.std::_Vector_base", %"struct.std::_Vector_base"* %68, i32 0, i32 0, !dbg !950
  %70 = getelementptr inbounds %"struct.std::_Vector_base<int, std::allocator<int> >::_Vector_impl", %"struct.std::_Vector_base<int, std::allocator<int> >::_Vector_impl"* %69, i32 0, i32 0, !dbg !951
  %71 = load i32*, i32** %70, align 8, !dbg !951
  %72 = bitcast %"class.std::vector"* %15 to %"struct.std::_Vector_base"*, !dbg !952
  %73 = getelementptr inbounds %"struct.std::_Vector_base", %"struct.std::_Vector_base"* %72, i32 0, i32 0, !dbg !952
  %74 = getelementptr inbounds %"struct.std::_Vector_base<int, std::allocator<int> >::_Vector_impl", %"struct.std::_Vector_base<int, std::allocator<int> >::_Vector_impl"* %73, i32 0, i32 2, !dbg !953
  %75 = load i32*, i32** %74, align 8, !dbg !953
  %76 = bitcast %"class.std::vector"* %15 to %"struct.std::_Vector_base"*, !dbg !954
  %77 = getelementptr inbounds %"struct.std::_Vector_base", %"struct.std::_Vector_base"* %76, i32 0, i32 0, !dbg !954
  %78 = getelementptr inbounds %"struct.std::_Vector_base<int, std::allocator<int> >::_Vector_impl", %"struct.std::_Vector_base<int, std::allocator<int> >::_Vector_impl"* %77, i32 0, i32 0, !dbg !955
  %79 = load i32*, i32** %78, align 8, !dbg !955
  %80 = ptrtoint i32* %75 to i64, !dbg !956
  %81 = ptrtoint i32* %79 to i64, !dbg !956
  %82 = sub i64 %80, %81, !dbg !956
  %83 = sdiv exact i64 %82, 4, !dbg !956
  call void @_ZNSt12_Vector_baseIiSaIiEE13_M_deallocateEPim(%"struct.std::_Vector_base"* %67, i32* %71, i64 %83), !dbg !949
  %84 = load i32*, i32** %10, align 8, !dbg !957
  %85 = bitcast %"class.std::vector"* %15 to %"struct.std::_Vector_base"*, !dbg !958
  %86 = getelementptr inbounds %"struct.std::_Vector_base", %"struct.std::_Vector_base"* %85, i32 0, i32 0, !dbg !958
  %87 = getelementptr inbounds %"struct.std::_Vector_base<int, std::allocator<int> >::_Vector_impl", %"struct.std::_Vector_base<int, std::allocator<int> >::_Vector_impl"* %86, i32 0, i32 0, !dbg !959
  store i32* %84, i32** %87, align 8, !dbg !960
  %88 = load i32*, i32** %11, align 8, !dbg !961
  %89 = bitcast %"class.std::vector"* %15 to %"struct.std::_Vector_base"*, !dbg !962
  %90 = getelementptr inbounds %"struct.std::_Vector_base", %"struct.std::_Vector_base"* %89, i32 0, i32 0, !dbg !962
  %91 = getelementptr inbounds %"struct.std::_Vector_base<int, std::allocator<int> >::_Vector_impl", %"struct.std::_Vector_base<int, std::allocator<int> >::_Vector_impl"* %90, i32 0, i32 1, !dbg !963
  store i32* %88, i32** %91, align 8, !dbg !964
  %92 = load i32*, i32** %10, align 8, !dbg !965
  %93 = load i64, i64* %7, align 8, !dbg !966
  %94 = getelementptr inbounds i32, i32* %92, i64 %93, !dbg !967
  %95 = bitcast %"class.std::vector"* %15 to %"struct.std::_Vector_base"*, !dbg !968
  %96 = getelementptr inbounds %"struct.std::_Vector_base", %"struct.std::_Vector_base"* %95, i32 0, i32 0, !dbg !968
  %97 = getelementptr inbounds %"struct.std::_Vector_base<int, std::allocator<int> >::_Vector_impl", %"struct.std::_Vector_base<int, std::allocator<int> >::_Vector_impl"* %96, i32 0, i32 2, !dbg !969
  store i32* %94, i32** %97, align 8, !dbg !970
  ret void, !dbg !971

; <label>:98:                                     ; preds = %43, %32, %3
  %99 = landingpad { i8*, i32 }
          catch i8* null, !dbg !972
  %100 = extractvalue { i8*, i32 } %99, 0, !dbg !972
  store i8* %100, i8** %12, align 8, !dbg !972
  %101 = extractvalue { i8*, i32 } %99, 1, !dbg !972
  store i32 %101, i32* %13, align 4, !dbg !972
  %102 = load i8*, i8** %12, align 8, !dbg !973
  %103 = call i8* @__cxa_begin_catch(i8* %102) #10, !dbg !973
  %104 = load i32*, i32** %11, align 8, !dbg !974
  %105 = icmp ne i32* %104, null, !dbg !974
  br i1 %105, label %117, label %106, !dbg !977

; <label>:106:                                    ; preds = %98
  %107 = bitcast %"class.std::vector"* %15 to %"struct.std::_Vector_base"*, !dbg !978
  %108 = getelementptr inbounds %"struct.std::_Vector_base", %"struct.std::_Vector_base"* %107, i32 0, i32 0, !dbg !978
  %109 = bitcast %"struct.std::_Vector_base<int, std::allocator<int> >::_Vector_impl"* %108 to %"class.std::allocator"*, !dbg !979
  %110 = load i32*, i32** %10, align 8, !dbg !980
  %111 = load i64, i64* %8, align 8, !dbg !981
  %112 = getelementptr inbounds i32, i32* %110, i64 %111, !dbg !982
  invoke void @_ZNSt16allocator_traitsISaIiEE7destroyIiEEvRS0_PT_(%"class.std::allocator"* dereferenceable(1) %109, i32* %112)
          to label %122 unwind label %113, !dbg !983

; <label>:113:                                    ; preds = %126, %122, %117, %106
  %114 = landingpad { i8*, i32 }
          cleanup, !dbg !984
  %115 = extractvalue { i8*, i32 } %114, 0, !dbg !984
  store i8* %115, i8** %12, align 8, !dbg !984
  %116 = extractvalue { i8*, i32 } %114, 1, !dbg !984
  store i32 %116, i32* %13, align 4, !dbg !984
  invoke void @__cxa_end_catch()
          to label %127 unwind label %132, !dbg !985

; <label>:117:                                    ; preds = %98
  %118 = load i32*, i32** %10, align 8, !dbg !986
  %119 = load i32*, i32** %11, align 8, !dbg !987
  %120 = bitcast %"class.std::vector"* %15 to %"struct.std::_Vector_base"*, !dbg !988
  %121 = call dereferenceable(1) %"class.std::allocator"* @_ZNSt12_Vector_baseIiSaIiEE19_M_get_Tp_allocatorEv(%"struct.std::_Vector_base"* %120) #10, !dbg !988
  invoke void @_ZSt8_DestroyIPiiEvT_S1_RSaIT0_E(i32* %118, i32* %119, %"class.std::allocator"* dereferenceable(1) %121)
          to label %122 unwind label %113, !dbg !989

; <label>:122:                                    ; preds = %117, %106
  %123 = bitcast %"class.std::vector"* %15 to %"struct.std::_Vector_base"*, !dbg !990
  %124 = load i32*, i32** %10, align 8, !dbg !991
  %125 = load i64, i64* %7, align 8, !dbg !992
  invoke void @_ZNSt12_Vector_baseIiSaIiEE13_M_deallocateEPim(%"struct.std::_Vector_base"* %123, i32* %124, i64 %125)
          to label %126 unwind label %113, !dbg !990

; <label>:126:                                    ; preds = %122
  invoke void @__cxa_rethrow() #12
          to label %135 unwind label %113, !dbg !993

; <label>:127:                                    ; preds = %113
  %128 = load i8*, i8** %12, align 8, !dbg !985
  %129 = load i32, i32* %13, align 4, !dbg !985
  %130 = insertvalue { i8*, i32 } undef, i8* %128, 0, !dbg !985
  %131 = insertvalue { i8*, i32 } %130, i32 %129, 1, !dbg !985
  resume { i8*, i32 } %131, !dbg !985

; <label>:132:                                    ; preds = %113
  %133 = landingpad { i8*, i32 }
          catch i8* null, !dbg !985
  %134 = extractvalue { i8*, i32 } %133, 0, !dbg !985
  call void @__clang_call_terminate(i8* %134) #11, !dbg !985
  unreachable, !dbg !985

; <label>:135:                                    ; preds = %126
  unreachable
}

; Function Attrs: noinline nounwind uwtable
define linkonce_odr i32* @_ZNSt6vectorIiSaIiEE3endEv(%"class.std::vector"*) #2 comdat align 2 !dbg !994 {
  %2 = alloca %"class.__gnu_cxx::__normal_iterator", align 8
  %3 = alloca %"class.std::vector"*, align 8
  store %"class.std::vector"* %0, %"class.std::vector"** %3, align 8
  call void @llvm.dbg.declare(metadata %"class.std::vector"** %3, metadata !995, metadata !DIExpression()), !dbg !996
  %4 = load %"class.std::vector"*, %"class.std::vector"** %3, align 8
  %5 = bitcast %"class.std::vector"* %4 to %"struct.std::_Vector_base"*, !dbg !997
  %6 = getelementptr inbounds %"struct.std::_Vector_base", %"struct.std::_Vector_base"* %5, i32 0, i32 0, !dbg !997
  %7 = getelementptr inbounds %"struct.std::_Vector_base<int, std::allocator<int> >::_Vector_impl", %"struct.std::_Vector_base<int, std::allocator<int> >::_Vector_impl"* %6, i32 0, i32 1, !dbg !998
  call void @_ZN9__gnu_cxx17__normal_iteratorIPiSt6vectorIiSaIiEEEC2ERKS1_(%"class.__gnu_cxx::__normal_iterator"* %2, i32** dereferenceable(8) %7) #10, !dbg !999
  %8 = getelementptr inbounds %"class.__gnu_cxx::__normal_iterator", %"class.__gnu_cxx::__normal_iterator"* %2, i32 0, i32 0, !dbg !1000
  %9 = load i32*, i32** %8, align 8, !dbg !1000
  ret i32* %9, !dbg !1000
}

; Function Attrs: noinline nounwind uwtable
define linkonce_odr void @_ZN9__gnu_cxx13new_allocatorIiE9constructIiJiEEEvPT_DpOT0_(%"class.__gnu_cxx::new_allocator"*, i32*, i32* dereferenceable(4)) #2 comdat align 2 !dbg !1001 {
  %4 = alloca %"class.__gnu_cxx::new_allocator"*, align 8
  %5 = alloca i32*, align 8
  %6 = alloca i32*, align 8
  store %"class.__gnu_cxx::new_allocator"* %0, %"class.__gnu_cxx::new_allocator"** %4, align 8
  call void @llvm.dbg.declare(metadata %"class.__gnu_cxx::new_allocator"** %4, metadata !1005, metadata !DIExpression()), !dbg !1006
  store i32* %1, i32** %5, align 8
  call void @llvm.dbg.declare(metadata i32** %5, metadata !1007, metadata !DIExpression()), !dbg !1008
  store i32* %2, i32** %6, align 8
  call void @llvm.dbg.declare(metadata i32** %6, metadata !1009, metadata !DIExpression()), !dbg !1010
  %7 = load %"class.__gnu_cxx::new_allocator"*, %"class.__gnu_cxx::new_allocator"** %4, align 8
  %8 = load i32*, i32** %5, align 8, !dbg !1011
  %9 = bitcast i32* %8 to i8*, !dbg !1011
  %10 = bitcast i8* %9 to i32*, !dbg !1012
  %11 = load i32*, i32** %6, align 8, !dbg !1013
  %12 = call dereferenceable(4) i32* @_ZSt7forwardIiEOT_RNSt16remove_referenceIS0_E4typeE(i32* dereferenceable(4) %11) #10, !dbg !1014
  %13 = load i32, i32* %12, align 4, !dbg !1014
  store i32 %13, i32* %10, align 4, !dbg !1012
  ret void, !dbg !1015
}

; Function Attrs: noinline uwtable
define linkonce_odr i64 @_ZNKSt6vectorIiSaIiEE12_M_check_lenEmPKc(%"class.std::vector"*, i64, i8*) #3 comdat align 2 !dbg !1016 {
  %4 = alloca %"class.std::vector"*, align 8
  %5 = alloca i64, align 8
  %6 = alloca i8*, align 8
  %7 = alloca i64, align 8
  %8 = alloca i64, align 8
  store %"class.std::vector"* %0, %"class.std::vector"** %4, align 8
  call void @llvm.dbg.declare(metadata %"class.std::vector"** %4, metadata !1017, metadata !DIExpression()), !dbg !1019
  store i64 %1, i64* %5, align 8
  call void @llvm.dbg.declare(metadata i64* %5, metadata !1020, metadata !DIExpression()), !dbg !1021
  store i8* %2, i8** %6, align 8
  call void @llvm.dbg.declare(metadata i8** %6, metadata !1022, metadata !DIExpression()), !dbg !1023
  %9 = load %"class.std::vector"*, %"class.std::vector"** %4, align 8
  %10 = call i64 @_ZNKSt6vectorIiSaIiEE8max_sizeEv(%"class.std::vector"* %9) #10, !dbg !1024
  %11 = call i64 @_ZNKSt6vectorIiSaIiEE4sizeEv(%"class.std::vector"* %9) #10, !dbg !1026
  %12 = sub i64 %10, %11, !dbg !1027
  %13 = load i64, i64* %5, align 8, !dbg !1028
  %14 = icmp ult i64 %12, %13, !dbg !1029
  br i1 %14, label %15, label %17, !dbg !1030

; <label>:15:                                     ; preds = %3
  %16 = load i8*, i8** %6, align 8, !dbg !1031
  call void @_ZSt20__throw_length_errorPKc(i8* %16) #12, !dbg !1032
  unreachable, !dbg !1032

; <label>:17:                                     ; preds = %3
  call void @llvm.dbg.declare(metadata i64* %7, metadata !1033, metadata !DIExpression()), !dbg !1034
  %18 = call i64 @_ZNKSt6vectorIiSaIiEE4sizeEv(%"class.std::vector"* %9) #10, !dbg !1035
  %19 = call i64 @_ZNKSt6vectorIiSaIiEE4sizeEv(%"class.std::vector"* %9) #10, !dbg !1036
  store i64 %19, i64* %8, align 8, !dbg !1036
  %20 = call dereferenceable(8) i64* @_ZSt3maxImERKT_S2_S2_(i64* dereferenceable(8) %8, i64* dereferenceable(8) %5), !dbg !1037
  %21 = load i64, i64* %20, align 8, !dbg !1037
  %22 = add i64 %18, %21, !dbg !1038
  store i64 %22, i64* %7, align 8, !dbg !1034
  %23 = load i64, i64* %7, align 8, !dbg !1039
  %24 = call i64 @_ZNKSt6vectorIiSaIiEE4sizeEv(%"class.std::vector"* %9) #10, !dbg !1040
  %25 = icmp ult i64 %23, %24, !dbg !1041
  br i1 %25, label %30, label %26, !dbg !1042

; <label>:26:                                     ; preds = %17
  %27 = load i64, i64* %7, align 8, !dbg !1043
  %28 = call i64 @_ZNKSt6vectorIiSaIiEE8max_sizeEv(%"class.std::vector"* %9) #10, !dbg !1044
  %29 = icmp ugt i64 %27, %28, !dbg !1045
  br i1 %29, label %30, label %32, !dbg !1046

; <label>:30:                                     ; preds = %26, %17
  %31 = call i64 @_ZNKSt6vectorIiSaIiEE8max_sizeEv(%"class.std::vector"* %9) #10, !dbg !1047
  br label %34, !dbg !1046

; <label>:32:                                     ; preds = %26
  %33 = load i64, i64* %7, align 8, !dbg !1048
  br label %34, !dbg !1046

; <label>:34:                                     ; preds = %32, %30
  %35 = phi i64 [ %31, %30 ], [ %33, %32 ], !dbg !1046
  ret i64 %35, !dbg !1049
}

; Function Attrs: noinline nounwind uwtable
define linkonce_odr i64 @_ZN9__gnu_cxxmiIPiSt6vectorIiSaIiEEEENS_17__normal_iteratorIT_T0_E15difference_typeERKS8_SB_(%"class.__gnu_cxx::__normal_iterator"* dereferenceable(8), %"class.__gnu_cxx::__normal_iterator"* dereferenceable(8)) #2 comdat !dbg !1050 {
  %3 = alloca %"class.__gnu_cxx::__normal_iterator"*, align 8
  %4 = alloca %"class.__gnu_cxx::__normal_iterator"*, align 8
  store %"class.__gnu_cxx::__normal_iterator"* %0, %"class.__gnu_cxx::__normal_iterator"** %3, align 8
  call void @llvm.dbg.declare(metadata %"class.__gnu_cxx::__normal_iterator"** %3, metadata !1054, metadata !DIExpression()), !dbg !1055
  store %"class.__gnu_cxx::__normal_iterator"* %1, %"class.__gnu_cxx::__normal_iterator"** %4, align 8
  call void @llvm.dbg.declare(metadata %"class.__gnu_cxx::__normal_iterator"** %4, metadata !1056, metadata !DIExpression()), !dbg !1057
  %5 = load %"class.__gnu_cxx::__normal_iterator"*, %"class.__gnu_cxx::__normal_iterator"** %3, align 8, !dbg !1058
  %6 = call dereferenceable(8) i32** @_ZNK9__gnu_cxx17__normal_iteratorIPiSt6vectorIiSaIiEEE4baseEv(%"class.__gnu_cxx::__normal_iterator"* %5) #10, !dbg !1059
  %7 = load i32*, i32** %6, align 8, !dbg !1059
  %8 = load %"class.__gnu_cxx::__normal_iterator"*, %"class.__gnu_cxx::__normal_iterator"** %4, align 8, !dbg !1060
  %9 = call dereferenceable(8) i32** @_ZNK9__gnu_cxx17__normal_iteratorIPiSt6vectorIiSaIiEEE4baseEv(%"class.__gnu_cxx::__normal_iterator"* %8) #10, !dbg !1061
  %10 = load i32*, i32** %9, align 8, !dbg !1061
  %11 = ptrtoint i32* %7 to i64, !dbg !1062
  %12 = ptrtoint i32* %10 to i64, !dbg !1062
  %13 = sub i64 %11, %12, !dbg !1062
  %14 = sdiv exact i64 %13, 4, !dbg !1062
  ret i64 %14, !dbg !1063
}

; Function Attrs: noinline nounwind uwtable
define linkonce_odr i32* @_ZNSt6vectorIiSaIiEE5beginEv(%"class.std::vector"*) #2 comdat align 2 !dbg !1064 {
  %2 = alloca %"class.__gnu_cxx::__normal_iterator", align 8
  %3 = alloca %"class.std::vector"*, align 8
  store %"class.std::vector"* %0, %"class.std::vector"** %3, align 8
  call void @llvm.dbg.declare(metadata %"class.std::vector"** %3, metadata !1065, metadata !DIExpression()), !dbg !1066
  %4 = load %"class.std::vector"*, %"class.std::vector"** %3, align 8
  %5 = bitcast %"class.std::vector"* %4 to %"struct.std::_Vector_base"*, !dbg !1067
  %6 = getelementptr inbounds %"struct.std::_Vector_base", %"struct.std::_Vector_base"* %5, i32 0, i32 0, !dbg !1067
  %7 = getelementptr inbounds %"struct.std::_Vector_base<int, std::allocator<int> >::_Vector_impl", %"struct.std::_Vector_base<int, std::allocator<int> >::_Vector_impl"* %6, i32 0, i32 0, !dbg !1068
  call void @_ZN9__gnu_cxx17__normal_iteratorIPiSt6vectorIiSaIiEEEC2ERKS1_(%"class.__gnu_cxx::__normal_iterator"* %2, i32** dereferenceable(8) %7) #10, !dbg !1069
  %8 = getelementptr inbounds %"class.__gnu_cxx::__normal_iterator", %"class.__gnu_cxx::__normal_iterator"* %2, i32 0, i32 0, !dbg !1070
  %9 = load i32*, i32** %8, align 8, !dbg !1070
  ret i32* %9, !dbg !1070
}

; Function Attrs: noinline uwtable
define linkonce_odr i32* @_ZNSt12_Vector_baseIiSaIiEE11_M_allocateEm(%"struct.std::_Vector_base"*, i64) #3 comdat align 2 !dbg !1071 {
  %3 = alloca %"struct.std::_Vector_base"*, align 8
  %4 = alloca i64, align 8
  store %"struct.std::_Vector_base"* %0, %"struct.std::_Vector_base"** %3, align 8
  call void @llvm.dbg.declare(metadata %"struct.std::_Vector_base"** %3, metadata !1072, metadata !DIExpression()), !dbg !1073
  store i64 %1, i64* %4, align 8
  call void @llvm.dbg.declare(metadata i64* %4, metadata !1074, metadata !DIExpression()), !dbg !1075
  %5 = load %"struct.std::_Vector_base"*, %"struct.std::_Vector_base"** %3, align 8
  %6 = load i64, i64* %4, align 8, !dbg !1076
  %7 = icmp ne i64 %6, 0, !dbg !1077
  br i1 %7, label %8, label %13, !dbg !1076

; <label>:8:                                      ; preds = %2
  %9 = getelementptr inbounds %"struct.std::_Vector_base", %"struct.std::_Vector_base"* %5, i32 0, i32 0, !dbg !1078
  %10 = bitcast %"struct.std::_Vector_base<int, std::allocator<int> >::_Vector_impl"* %9 to %"class.std::allocator"*, !dbg !1078
  %11 = load i64, i64* %4, align 8, !dbg !1079
  %12 = call i32* @_ZNSt16allocator_traitsISaIiEE8allocateERS0_m(%"class.std::allocator"* dereferenceable(1) %10, i64 %11), !dbg !1080
  br label %13, !dbg !1076

; <label>:13:                                     ; preds = %2, %8
  %14 = phi i32* [ %12, %8 ], [ null, %2 ], !dbg !1076
  ret i32* %14, !dbg !1081
}

; Function Attrs: noinline uwtable
define linkonce_odr i32* @_ZSt34__uninitialized_move_if_noexcept_aIPiS0_SaIiEET0_T_S3_S2_RT1_(i32*, i32*, i32*, %"class.std::allocator"* dereferenceable(1)) #3 comdat !dbg !1082 {
  %5 = alloca i32*, align 8
  %6 = alloca i32*, align 8
  %7 = alloca i32*, align 8
  %8 = alloca %"class.std::allocator"*, align 8
  %9 = alloca %"class.std::move_iterator", align 8
  %10 = alloca %"class.std::move_iterator", align 8
  store i32* %0, i32** %5, align 8
  call void @llvm.dbg.declare(metadata i32** %5, metadata !1089, metadata !DIExpression()), !dbg !1090
  store i32* %1, i32** %6, align 8
  call void @llvm.dbg.declare(metadata i32** %6, metadata !1091, metadata !DIExpression()), !dbg !1092
  store i32* %2, i32** %7, align 8
  call void @llvm.dbg.declare(metadata i32** %7, metadata !1093, metadata !DIExpression()), !dbg !1094
  store %"class.std::allocator"* %3, %"class.std::allocator"** %8, align 8
  call void @llvm.dbg.declare(metadata %"class.std::allocator"** %8, metadata !1095, metadata !DIExpression()), !dbg !1096
  %11 = load i32*, i32** %5, align 8, !dbg !1097
  %12 = call i32* @_ZSt32__make_move_if_noexcept_iteratorIiSt13move_iteratorIPiEET0_PT_(i32* %11), !dbg !1097
  %13 = getelementptr inbounds %"class.std::move_iterator", %"class.std::move_iterator"* %9, i32 0, i32 0, !dbg !1097
  store i32* %12, i32** %13, align 8, !dbg !1097
  %14 = load i32*, i32** %6, align 8, !dbg !1098
  %15 = call i32* @_ZSt32__make_move_if_noexcept_iteratorIiSt13move_iteratorIPiEET0_PT_(i32* %14), !dbg !1098
  %16 = getelementptr inbounds %"class.std::move_iterator", %"class.std::move_iterator"* %10, i32 0, i32 0, !dbg !1098
  store i32* %15, i32** %16, align 8, !dbg !1098
  %17 = load i32*, i32** %7, align 8, !dbg !1099
  %18 = load %"class.std::allocator"*, %"class.std::allocator"** %8, align 8, !dbg !1100
  %19 = getelementptr inbounds %"class.std::move_iterator", %"class.std::move_iterator"* %9, i32 0, i32 0, !dbg !1101
  %20 = load i32*, i32** %19, align 8, !dbg !1101
  %21 = getelementptr inbounds %"class.std::move_iterator", %"class.std::move_iterator"* %10, i32 0, i32 0, !dbg !1101
  %22 = load i32*, i32** %21, align 8, !dbg !1101
  %23 = call i32* @_ZSt22__uninitialized_copy_aISt13move_iteratorIPiES1_iET0_T_S4_S3_RSaIT1_E(i32* %20, i32* %22, i32* %17, %"class.std::allocator"* dereferenceable(1) %18), !dbg !1101
  ret i32* %23, !dbg !1102
}

; Function Attrs: noinline nounwind uwtable
define linkonce_odr dereferenceable(8) i32** @_ZNK9__gnu_cxx17__normal_iteratorIPiSt6vectorIiSaIiEEE4baseEv(%"class.__gnu_cxx::__normal_iterator"*) #2 comdat align 2 !dbg !1103 {
  %2 = alloca %"class.__gnu_cxx::__normal_iterator"*, align 8
  store %"class.__gnu_cxx::__normal_iterator"* %0, %"class.__gnu_cxx::__normal_iterator"** %2, align 8
  call void @llvm.dbg.declare(metadata %"class.__gnu_cxx::__normal_iterator"** %2, metadata !1104, metadata !DIExpression()), !dbg !1106
  %3 = load %"class.__gnu_cxx::__normal_iterator"*, %"class.__gnu_cxx::__normal_iterator"** %2, align 8
  %4 = getelementptr inbounds %"class.__gnu_cxx::__normal_iterator", %"class.__gnu_cxx::__normal_iterator"* %3, i32 0, i32 0, !dbg !1107
  ret i32** %4, !dbg !1108
}

; Function Attrs: noinline uwtable
define linkonce_odr void @_ZNSt16allocator_traitsISaIiEE7destroyIiEEvRS0_PT_(%"class.std::allocator"* dereferenceable(1), i32*) #3 comdat align 2 !dbg !1109 {
  %3 = alloca %"class.std::allocator"*, align 8
  %4 = alloca i32*, align 8
  store %"class.std::allocator"* %0, %"class.std::allocator"** %3, align 8
  call void @llvm.dbg.declare(metadata %"class.std::allocator"** %3, metadata !1114, metadata !DIExpression()), !dbg !1115
  store i32* %1, i32** %4, align 8
  call void @llvm.dbg.declare(metadata i32** %4, metadata !1116, metadata !DIExpression()), !dbg !1117
  %5 = load %"class.std::allocator"*, %"class.std::allocator"** %3, align 8, !dbg !1118
  %6 = bitcast %"class.std::allocator"* %5 to %"class.__gnu_cxx::new_allocator"*, !dbg !1118
  %7 = load i32*, i32** %4, align 8, !dbg !1119
  call void @_ZN9__gnu_cxx13new_allocatorIiE7destroyIiEEvPT_(%"class.__gnu_cxx::new_allocator"* %6, i32* %7), !dbg !1120
  ret void, !dbg !1121
}

declare void @__cxa_rethrow()

declare void @__cxa_end_catch()

; Function Attrs: noinline nounwind uwtable
define linkonce_odr i64 @_ZNKSt6vectorIiSaIiEE8max_sizeEv(%"class.std::vector"*) #2 comdat align 2 !dbg !1122 {
  %2 = alloca %"class.std::vector"*, align 8
  store %"class.std::vector"* %0, %"class.std::vector"** %2, align 8
  call void @llvm.dbg.declare(metadata %"class.std::vector"** %2, metadata !1123, metadata !DIExpression()), !dbg !1124
  %3 = load %"class.std::vector"*, %"class.std::vector"** %2, align 8
  %4 = bitcast %"class.std::vector"* %3 to %"struct.std::_Vector_base"*, !dbg !1125
  %5 = call dereferenceable(1) %"class.std::allocator"* @_ZNKSt12_Vector_baseIiSaIiEE19_M_get_Tp_allocatorEv(%"struct.std::_Vector_base"* %4) #10, !dbg !1125
  %6 = call i64 @_ZNSt16allocator_traitsISaIiEE8max_sizeERKS0_(%"class.std::allocator"* dereferenceable(1) %5) #10, !dbg !1126
  ret i64 %6, !dbg !1127
}

; Function Attrs: noinline nounwind uwtable
define linkonce_odr i64 @_ZNKSt6vectorIiSaIiEE4sizeEv(%"class.std::vector"*) #2 comdat align 2 !dbg !1128 {
  %2 = alloca %"class.std::vector"*, align 8
  store %"class.std::vector"* %0, %"class.std::vector"** %2, align 8
  call void @llvm.dbg.declare(metadata %"class.std::vector"** %2, metadata !1129, metadata !DIExpression()), !dbg !1130
  %3 = load %"class.std::vector"*, %"class.std::vector"** %2, align 8
  %4 = bitcast %"class.std::vector"* %3 to %"struct.std::_Vector_base"*, !dbg !1131
  %5 = getelementptr inbounds %"struct.std::_Vector_base", %"struct.std::_Vector_base"* %4, i32 0, i32 0, !dbg !1131
  %6 = getelementptr inbounds %"struct.std::_Vector_base<int, std::allocator<int> >::_Vector_impl", %"struct.std::_Vector_base<int, std::allocator<int> >::_Vector_impl"* %5, i32 0, i32 1, !dbg !1132
  %7 = load i32*, i32** %6, align 8, !dbg !1132
  %8 = bitcast %"class.std::vector"* %3 to %"struct.std::_Vector_base"*, !dbg !1133
  %9 = getelementptr inbounds %"struct.std::_Vector_base", %"struct.std::_Vector_base"* %8, i32 0, i32 0, !dbg !1133
  %10 = getelementptr inbounds %"struct.std::_Vector_base<int, std::allocator<int> >::_Vector_impl", %"struct.std::_Vector_base<int, std::allocator<int> >::_Vector_impl"* %9, i32 0, i32 0, !dbg !1134
  %11 = load i32*, i32** %10, align 8, !dbg !1134
  %12 = ptrtoint i32* %7 to i64, !dbg !1135
  %13 = ptrtoint i32* %11 to i64, !dbg !1135
  %14 = sub i64 %12, %13, !dbg !1135
  %15 = sdiv exact i64 %14, 4, !dbg !1135
  ret i64 %15, !dbg !1136
}

; Function Attrs: noreturn
declare void @_ZSt20__throw_length_errorPKc(i8*) #6

; Function Attrs: noinline nounwind uwtable
define linkonce_odr dereferenceable(8) i64* @_ZSt3maxImERKT_S2_S2_(i64* dereferenceable(8), i64* dereferenceable(8)) #2 comdat !dbg !1137 {
  %3 = alloca i64*, align 8
  %4 = alloca i64*, align 8
  %5 = alloca i64*, align 8
  store i64* %0, i64** %4, align 8
  call void @llvm.dbg.declare(metadata i64** %4, metadata !1145, metadata !DIExpression()), !dbg !1146
  store i64* %1, i64** %5, align 8
  call void @llvm.dbg.declare(metadata i64** %5, metadata !1147, metadata !DIExpression()), !dbg !1148
  %6 = load i64*, i64** %4, align 8, !dbg !1149
  %7 = load i64, i64* %6, align 8, !dbg !1149
  %8 = load i64*, i64** %5, align 8, !dbg !1151
  %9 = load i64, i64* %8, align 8, !dbg !1151
  %10 = icmp ult i64 %7, %9, !dbg !1152
  br i1 %10, label %11, label %13, !dbg !1153

; <label>:11:                                     ; preds = %2
  %12 = load i64*, i64** %5, align 8, !dbg !1154
  store i64* %12, i64** %3, align 8, !dbg !1155
  br label %15, !dbg !1155

; <label>:13:                                     ; preds = %2
  %14 = load i64*, i64** %4, align 8, !dbg !1156
  store i64* %14, i64** %3, align 8, !dbg !1157
  br label %15, !dbg !1157

; <label>:15:                                     ; preds = %13, %11
  %16 = load i64*, i64** %3, align 8, !dbg !1158
  ret i64* %16, !dbg !1158
}

; Function Attrs: noinline nounwind uwtable
define linkonce_odr i64 @_ZNSt16allocator_traitsISaIiEE8max_sizeERKS0_(%"class.std::allocator"* dereferenceable(1)) #2 comdat align 2 !dbg !1159 {
  %2 = alloca %"class.std::allocator"*, align 8
  store %"class.std::allocator"* %0, %"class.std::allocator"** %2, align 8
  call void @llvm.dbg.declare(metadata %"class.std::allocator"** %2, metadata !1160, metadata !DIExpression()), !dbg !1161
  %3 = load %"class.std::allocator"*, %"class.std::allocator"** %2, align 8, !dbg !1162
  %4 = bitcast %"class.std::allocator"* %3 to %"class.__gnu_cxx::new_allocator"*, !dbg !1162
  %5 = call i64 @_ZNK9__gnu_cxx13new_allocatorIiE8max_sizeEv(%"class.__gnu_cxx::new_allocator"* %4) #10, !dbg !1163
  ret i64 %5, !dbg !1164
}

; Function Attrs: noinline nounwind uwtable
define linkonce_odr dereferenceable(1) %"class.std::allocator"* @_ZNKSt12_Vector_baseIiSaIiEE19_M_get_Tp_allocatorEv(%"struct.std::_Vector_base"*) #2 comdat align 2 !dbg !1165 {
  %2 = alloca %"struct.std::_Vector_base"*, align 8
  store %"struct.std::_Vector_base"* %0, %"struct.std::_Vector_base"** %2, align 8
  call void @llvm.dbg.declare(metadata %"struct.std::_Vector_base"** %2, metadata !1166, metadata !DIExpression()), !dbg !1168
  %3 = load %"struct.std::_Vector_base"*, %"struct.std::_Vector_base"** %2, align 8
  %4 = getelementptr inbounds %"struct.std::_Vector_base", %"struct.std::_Vector_base"* %3, i32 0, i32 0, !dbg !1169
  %5 = bitcast %"struct.std::_Vector_base<int, std::allocator<int> >::_Vector_impl"* %4 to %"class.std::allocator"*, !dbg !1170
  ret %"class.std::allocator"* %5, !dbg !1171
}

; Function Attrs: noinline nounwind uwtable
define linkonce_odr i64 @_ZNK9__gnu_cxx13new_allocatorIiE8max_sizeEv(%"class.__gnu_cxx::new_allocator"*) #2 comdat align 2 !dbg !1172 {
  %2 = alloca %"class.__gnu_cxx::new_allocator"*, align 8
  store %"class.__gnu_cxx::new_allocator"* %0, %"class.__gnu_cxx::new_allocator"** %2, align 8
  call void @llvm.dbg.declare(metadata %"class.__gnu_cxx::new_allocator"** %2, metadata !1173, metadata !DIExpression()), !dbg !1175
  %3 = load %"class.__gnu_cxx::new_allocator"*, %"class.__gnu_cxx::new_allocator"** %2, align 8
  ret i64 4611686018427387903, !dbg !1176
}

; Function Attrs: noinline nounwind uwtable
define linkonce_odr void @_ZN9__gnu_cxx17__normal_iteratorIPiSt6vectorIiSaIiEEEC2ERKS1_(%"class.__gnu_cxx::__normal_iterator"*, i32** dereferenceable(8)) unnamed_addr #2 comdat align 2 !dbg !1177 {
  %3 = alloca %"class.__gnu_cxx::__normal_iterator"*, align 8
  %4 = alloca i32**, align 8
  store %"class.__gnu_cxx::__normal_iterator"* %0, %"class.__gnu_cxx::__normal_iterator"** %3, align 8
  call void @llvm.dbg.declare(metadata %"class.__gnu_cxx::__normal_iterator"** %3, metadata !1178, metadata !DIExpression()), !dbg !1180
  store i32** %1, i32*** %4, align 8
  call void @llvm.dbg.declare(metadata i32*** %4, metadata !1181, metadata !DIExpression()), !dbg !1182
  %5 = load %"class.__gnu_cxx::__normal_iterator"*, %"class.__gnu_cxx::__normal_iterator"** %3, align 8
  %6 = getelementptr inbounds %"class.__gnu_cxx::__normal_iterator", %"class.__gnu_cxx::__normal_iterator"* %5, i32 0, i32 0, !dbg !1183
  %7 = load i32**, i32*** %4, align 8, !dbg !1184
  %8 = load i32*, i32** %7, align 8, !dbg !1184
  store i32* %8, i32** %6, align 8, !dbg !1183
  ret void, !dbg !1185
}

; Function Attrs: noinline uwtable
define linkonce_odr i32* @_ZNSt16allocator_traitsISaIiEE8allocateERS0_m(%"class.std::allocator"* dereferenceable(1), i64) #3 comdat align 2 !dbg !1186 {
  %3 = alloca %"class.std::allocator"*, align 8
  %4 = alloca i64, align 8
  store %"class.std::allocator"* %0, %"class.std::allocator"** %3, align 8
  call void @llvm.dbg.declare(metadata %"class.std::allocator"** %3, metadata !1187, metadata !DIExpression()), !dbg !1188
  store i64 %1, i64* %4, align 8
  call void @llvm.dbg.declare(metadata i64* %4, metadata !1189, metadata !DIExpression()), !dbg !1190
  %5 = load %"class.std::allocator"*, %"class.std::allocator"** %3, align 8, !dbg !1191
  %6 = bitcast %"class.std::allocator"* %5 to %"class.__gnu_cxx::new_allocator"*, !dbg !1191
  %7 = load i64, i64* %4, align 8, !dbg !1192
  %8 = call i32* @_ZN9__gnu_cxx13new_allocatorIiE8allocateEmPKv(%"class.__gnu_cxx::new_allocator"* %6, i64 %7, i8* null), !dbg !1193
  ret i32* %8, !dbg !1194
}

; Function Attrs: noinline uwtable
define linkonce_odr i32* @_ZN9__gnu_cxx13new_allocatorIiE8allocateEmPKv(%"class.__gnu_cxx::new_allocator"*, i64, i8*) #3 comdat align 2 !dbg !1195 {
  %4 = alloca %"class.__gnu_cxx::new_allocator"*, align 8
  %5 = alloca i64, align 8
  %6 = alloca i8*, align 8
  store %"class.__gnu_cxx::new_allocator"* %0, %"class.__gnu_cxx::new_allocator"** %4, align 8
  call void @llvm.dbg.declare(metadata %"class.__gnu_cxx::new_allocator"** %4, metadata !1196, metadata !DIExpression()), !dbg !1197
  store i64 %1, i64* %5, align 8
  call void @llvm.dbg.declare(metadata i64* %5, metadata !1198, metadata !DIExpression()), !dbg !1199
  store i8* %2, i8** %6, align 8
  call void @llvm.dbg.declare(metadata i8** %6, metadata !1200, metadata !DIExpression()), !dbg !1201
  %7 = load %"class.__gnu_cxx::new_allocator"*, %"class.__gnu_cxx::new_allocator"** %4, align 8
  %8 = load i64, i64* %5, align 8, !dbg !1202
  %9 = call i64 @_ZNK9__gnu_cxx13new_allocatorIiE8max_sizeEv(%"class.__gnu_cxx::new_allocator"* %7) #10, !dbg !1204
  %10 = icmp ugt i64 %8, %9, !dbg !1205
  br i1 %10, label %11, label %12, !dbg !1206

; <label>:11:                                     ; preds = %3
  call void @_ZSt17__throw_bad_allocv() #12, !dbg !1207
  unreachable, !dbg !1207

; <label>:12:                                     ; preds = %3
  %13 = load i64, i64* %5, align 8, !dbg !1208
  %14 = mul i64 %13, 4, !dbg !1209
  %15 = call i8* @_Znwm(i64 %14), !dbg !1210
  %16 = bitcast i8* %15 to i32*, !dbg !1211
  ret i32* %16, !dbg !1212
}

; Function Attrs: noreturn
declare void @_ZSt17__throw_bad_allocv() #6

; Function Attrs: nobuiltin
declare noalias i8* @_Znwm(i64) #7

; Function Attrs: noinline uwtable
define linkonce_odr i32* @_ZSt22__uninitialized_copy_aISt13move_iteratorIPiES1_iET0_T_S4_S3_RSaIT1_E(i32*, i32*, i32*, %"class.std::allocator"* dereferenceable(1)) #3 comdat !dbg !1213 {
  %5 = alloca %"class.std::move_iterator", align 8
  %6 = alloca %"class.std::move_iterator", align 8
  %7 = alloca i32*, align 8
  %8 = alloca %"class.std::allocator"*, align 8
  %9 = alloca %"class.std::move_iterator", align 8
  %10 = alloca %"class.std::move_iterator", align 8
  %11 = getelementptr inbounds %"class.std::move_iterator", %"class.std::move_iterator"* %5, i32 0, i32 0
  store i32* %0, i32** %11, align 8
  %12 = getelementptr inbounds %"class.std::move_iterator", %"class.std::move_iterator"* %6, i32 0, i32 0
  store i32* %1, i32** %12, align 8
  call void @llvm.dbg.declare(metadata %"class.std::move_iterator"* %5, metadata !1218, metadata !DIExpression()), !dbg !1219
  call void @llvm.dbg.declare(metadata %"class.std::move_iterator"* %6, metadata !1220, metadata !DIExpression()), !dbg !1221
  store i32* %2, i32** %7, align 8
  call void @llvm.dbg.declare(metadata i32** %7, metadata !1222, metadata !DIExpression()), !dbg !1223
  store %"class.std::allocator"* %3, %"class.std::allocator"** %8, align 8
  call void @llvm.dbg.declare(metadata %"class.std::allocator"** %8, metadata !1224, metadata !DIExpression()), !dbg !1225
  %13 = bitcast %"class.std::move_iterator"* %9 to i8*, !dbg !1226
  %14 = bitcast %"class.std::move_iterator"* %5 to i8*, !dbg !1226
  %15 = call i8* @memcpy(i8* %13, i8* %14, i64 8), !dbg !1226
  %16 = bitcast %"class.std::move_iterator"* %10 to i8*, !dbg !1227
  %17 = bitcast %"class.std::move_iterator"* %6 to i8*, !dbg !1227
  %18 = call i8* @memcpy(i8* %16, i8* %17, i64 8), !dbg !1227
  %19 = load i32*, i32** %7, align 8, !dbg !1228
  %20 = getelementptr inbounds %"class.std::move_iterator", %"class.std::move_iterator"* %9, i32 0, i32 0, !dbg !1229
  %21 = load i32*, i32** %20, align 8, !dbg !1229
  %22 = getelementptr inbounds %"class.std::move_iterator", %"class.std::move_iterator"* %10, i32 0, i32 0, !dbg !1229
  %23 = load i32*, i32** %22, align 8, !dbg !1229
  %24 = call i32* @_ZSt18uninitialized_copyISt13move_iteratorIPiES1_ET0_T_S4_S3_(i32* %21, i32* %23, i32* %19), !dbg !1229
  ret i32* %24, !dbg !1230
}

; Function Attrs: noinline uwtable
define linkonce_odr i32* @_ZSt32__make_move_if_noexcept_iteratorIiSt13move_iteratorIPiEET0_PT_(i32*) #3 comdat !dbg !1231 {
  %2 = alloca %"class.std::move_iterator", align 8
  %3 = alloca i32*, align 8
  store i32* %0, i32** %3, align 8
  call void @llvm.dbg.declare(metadata i32** %3, metadata !1236, metadata !DIExpression()), !dbg !1237
  %4 = load i32*, i32** %3, align 8, !dbg !1238
  call void @_ZNSt13move_iteratorIPiEC2ES0_(%"class.std::move_iterator"* %2, i32* %4), !dbg !1239
  %5 = getelementptr inbounds %"class.std::move_iterator", %"class.std::move_iterator"* %2, i32 0, i32 0, !dbg !1240
  %6 = load i32*, i32** %5, align 8, !dbg !1240
  ret i32* %6, !dbg !1240
}

; Function Attrs: noinline uwtable
define linkonce_odr i32* @_ZSt18uninitialized_copyISt13move_iteratorIPiES1_ET0_T_S4_S3_(i32*, i32*, i32*) #3 comdat !dbg !1241 {
  %4 = alloca %"class.std::move_iterator", align 8
  %5 = alloca %"class.std::move_iterator", align 8
  %6 = alloca i32*, align 8
  %7 = alloca i8, align 1
  %8 = alloca %"class.std::move_iterator", align 8
  %9 = alloca %"class.std::move_iterator", align 8
  %10 = getelementptr inbounds %"class.std::move_iterator", %"class.std::move_iterator"* %4, i32 0, i32 0
  store i32* %0, i32** %10, align 8
  %11 = getelementptr inbounds %"class.std::move_iterator", %"class.std::move_iterator"* %5, i32 0, i32 0
  store i32* %1, i32** %11, align 8
  call void @llvm.dbg.declare(metadata %"class.std::move_iterator"* %4, metadata !1245, metadata !DIExpression()), !dbg !1246
  call void @llvm.dbg.declare(metadata %"class.std::move_iterator"* %5, metadata !1247, metadata !DIExpression()), !dbg !1248
  store i32* %2, i32** %6, align 8
  call void @llvm.dbg.declare(metadata i32** %6, metadata !1249, metadata !DIExpression()), !dbg !1250
  call void @llvm.dbg.declare(metadata i8* %7, metadata !1251, metadata !DIExpression()), !dbg !1252
  store i8 1, i8* %7, align 1, !dbg !1252
  %12 = bitcast %"class.std::move_iterator"* %8 to i8*, !dbg !1253
  %13 = bitcast %"class.std::move_iterator"* %4 to i8*, !dbg !1253
  %14 = call i8* @memcpy(i8* %12, i8* %13, i64 8), !dbg !1253
  %15 = bitcast %"class.std::move_iterator"* %9 to i8*, !dbg !1254
  %16 = bitcast %"class.std::move_iterator"* %5 to i8*, !dbg !1254
  %17 = call i8* @memcpy(i8* %15, i8* %16, i64 8), !dbg !1254
  %18 = load i32*, i32** %6, align 8, !dbg !1255
  %19 = getelementptr inbounds %"class.std::move_iterator", %"class.std::move_iterator"* %8, i32 0, i32 0, !dbg !1256
  %20 = load i32*, i32** %19, align 8, !dbg !1256
  %21 = getelementptr inbounds %"class.std::move_iterator", %"class.std::move_iterator"* %9, i32 0, i32 0, !dbg !1256
  %22 = load i32*, i32** %21, align 8, !dbg !1256
  %23 = call i32* @_ZNSt20__uninitialized_copyILb1EE13__uninit_copyISt13move_iteratorIPiES3_EET0_T_S6_S5_(i32* %20, i32* %22, i32* %18), !dbg !1256
  ret i32* %23, !dbg !1257
}

; Function Attrs: argmemonly nounwind
declare void @llvm.memcpy.p0i8.p0i8.i64(i8* nocapture writeonly, i8* nocapture readonly, i64, i32, i1) #8

; Function Attrs: noinline uwtable
define linkonce_odr i32* @_ZNSt20__uninitialized_copyILb1EE13__uninit_copyISt13move_iteratorIPiES3_EET0_T_S6_S5_(i32*, i32*, i32*) #3 comdat align 2 !dbg !1258 {
  %4 = alloca %"class.std::move_iterator", align 8
  %5 = alloca %"class.std::move_iterator", align 8
  %6 = alloca i32*, align 8
  %7 = alloca %"class.std::move_iterator", align 8
  %8 = alloca %"class.std::move_iterator", align 8
  %9 = getelementptr inbounds %"class.std::move_iterator", %"class.std::move_iterator"* %4, i32 0, i32 0
  store i32* %0, i32** %9, align 8
  %10 = getelementptr inbounds %"class.std::move_iterator", %"class.std::move_iterator"* %5, i32 0, i32 0
  store i32* %1, i32** %10, align 8
  call void @llvm.dbg.declare(metadata %"class.std::move_iterator"* %4, metadata !1263, metadata !DIExpression()), !dbg !1264
  call void @llvm.dbg.declare(metadata %"class.std::move_iterator"* %5, metadata !1265, metadata !DIExpression()), !dbg !1266
  store i32* %2, i32** %6, align 8
  call void @llvm.dbg.declare(metadata i32** %6, metadata !1267, metadata !DIExpression()), !dbg !1268
  %11 = bitcast %"class.std::move_iterator"* %7 to i8*, !dbg !1269
  %12 = bitcast %"class.std::move_iterator"* %4 to i8*, !dbg !1269
  %13 = call i8* @memcpy(i8* %11, i8* %12, i64 8), !dbg !1269
  %14 = bitcast %"class.std::move_iterator"* %8 to i8*, !dbg !1270
  %15 = bitcast %"class.std::move_iterator"* %5 to i8*, !dbg !1270
  %16 = call i8* @memcpy(i8* %14, i8* %15, i64 8), !dbg !1270
  %17 = load i32*, i32** %6, align 8, !dbg !1271
  %18 = getelementptr inbounds %"class.std::move_iterator", %"class.std::move_iterator"* %7, i32 0, i32 0, !dbg !1272
  %19 = load i32*, i32** %18, align 8, !dbg !1272
  %20 = getelementptr inbounds %"class.std::move_iterator", %"class.std::move_iterator"* %8, i32 0, i32 0, !dbg !1272
  %21 = load i32*, i32** %20, align 8, !dbg !1272
  %22 = call i32* @_ZSt4copyISt13move_iteratorIPiES1_ET0_T_S4_S3_(i32* %19, i32* %21, i32* %17), !dbg !1272
  ret i32* %22, !dbg !1273
}

; Function Attrs: noinline uwtable
define linkonce_odr i32* @_ZSt4copyISt13move_iteratorIPiES1_ET0_T_S4_S3_(i32*, i32*, i32*) #3 comdat !dbg !1274 {
  %4 = alloca %"class.std::move_iterator", align 8
  %5 = alloca %"class.std::move_iterator", align 8
  %6 = alloca i32*, align 8
  %7 = alloca %"class.std::move_iterator", align 8
  %8 = alloca %"class.std::move_iterator", align 8
  %9 = getelementptr inbounds %"class.std::move_iterator", %"class.std::move_iterator"* %4, i32 0, i32 0
  store i32* %0, i32** %9, align 8
  %10 = getelementptr inbounds %"class.std::move_iterator", %"class.std::move_iterator"* %5, i32 0, i32 0
  store i32* %1, i32** %10, align 8
  call void @llvm.dbg.declare(metadata %"class.std::move_iterator"* %4, metadata !1278, metadata !DIExpression()), !dbg !1279
  call void @llvm.dbg.declare(metadata %"class.std::move_iterator"* %5, metadata !1280, metadata !DIExpression()), !dbg !1281
  store i32* %2, i32** %6, align 8
  call void @llvm.dbg.declare(metadata i32** %6, metadata !1282, metadata !DIExpression()), !dbg !1283
  %11 = bitcast %"class.std::move_iterator"* %7 to i8*, !dbg !1284
  %12 = bitcast %"class.std::move_iterator"* %4 to i8*, !dbg !1284
  %13 = call i8* @memcpy(i8* %11, i8* %12, i64 8), !dbg !1284
  %14 = getelementptr inbounds %"class.std::move_iterator", %"class.std::move_iterator"* %7, i32 0, i32 0, !dbg !1285
  %15 = load i32*, i32** %14, align 8, !dbg !1285
  %16 = call i32* @_ZSt12__miter_baseIPiEDTcl12__miter_basecldtfp_4baseEEESt13move_iteratorIT_E(i32* %15), !dbg !1285
  %17 = bitcast %"class.std::move_iterator"* %8 to i8*, !dbg !1286
  %18 = bitcast %"class.std::move_iterator"* %5 to i8*, !dbg !1286
  %19 = call i8* @memcpy(i8* %17, i8* %18, i64 8), !dbg !1286
  %20 = getelementptr inbounds %"class.std::move_iterator", %"class.std::move_iterator"* %8, i32 0, i32 0, !dbg !1287
  %21 = load i32*, i32** %20, align 8, !dbg !1287
  %22 = call i32* @_ZSt12__miter_baseIPiEDTcl12__miter_basecldtfp_4baseEEESt13move_iteratorIT_E(i32* %21), !dbg !1287
  %23 = load i32*, i32** %6, align 8, !dbg !1288
  %24 = call i32* @_ZSt14__copy_move_a2ILb1EPiS0_ET1_T0_S2_S1_(i32* %16, i32* %22, i32* %23), !dbg !1289
  ret i32* %24, !dbg !1290
}

; Function Attrs: noinline uwtable
define linkonce_odr i32* @_ZSt14__copy_move_a2ILb1EPiS0_ET1_T0_S2_S1_(i32*, i32*, i32*) #3 comdat !dbg !1291 {
  %4 = alloca i32*, align 8
  %5 = alloca i32*, align 8
  %6 = alloca i32*, align 8
  store i32* %0, i32** %4, align 8
  call void @llvm.dbg.declare(metadata i32** %4, metadata !1297, metadata !DIExpression()), !dbg !1298
  store i32* %1, i32** %5, align 8
  call void @llvm.dbg.declare(metadata i32** %5, metadata !1299, metadata !DIExpression()), !dbg !1300
  store i32* %2, i32** %6, align 8
  call void @llvm.dbg.declare(metadata i32** %6, metadata !1301, metadata !DIExpression()), !dbg !1302
  %7 = load i32*, i32** %4, align 8, !dbg !1303
  %8 = call i32* @_ZSt12__niter_baseIPiET_S1_(i32* %7), !dbg !1304
  %9 = load i32*, i32** %5, align 8, !dbg !1305
  %10 = call i32* @_ZSt12__niter_baseIPiET_S1_(i32* %9), !dbg !1306
  %11 = load i32*, i32** %6, align 8, !dbg !1307
  %12 = call i32* @_ZSt12__niter_baseIPiET_S1_(i32* %11), !dbg !1308
  %13 = call i32* @_ZSt13__copy_move_aILb1EPiS0_ET1_T0_S2_S1_(i32* %8, i32* %10, i32* %12), !dbg !1309
  ret i32* %13, !dbg !1310
}

; Function Attrs: noinline uwtable
define linkonce_odr i32* @_ZSt12__miter_baseIPiEDTcl12__miter_basecldtfp_4baseEEESt13move_iteratorIT_E(i32*) #3 comdat !dbg !1311 {
  %2 = alloca %"class.std::move_iterator", align 8
  %3 = getelementptr inbounds %"class.std::move_iterator", %"class.std::move_iterator"* %2, i32 0, i32 0
  store i32* %0, i32** %3, align 8
  call void @llvm.dbg.declare(metadata %"class.std::move_iterator"* %2, metadata !1314, metadata !DIExpression()), !dbg !1315
  %4 = call i32* @_ZNKSt13move_iteratorIPiE4baseEv(%"class.std::move_iterator"* %2), !dbg !1316
  %5 = call i32* @_ZSt12__miter_baseIPiET_S1_(i32* %4), !dbg !1317
  ret i32* %5, !dbg !1318
}

; Function Attrs: noinline uwtable
define linkonce_odr i32* @_ZSt13__copy_move_aILb1EPiS0_ET1_T0_S2_S1_(i32*, i32*, i32*) #3 comdat !dbg !1319 {
  %4 = alloca i32*, align 8
  %5 = alloca i32*, align 8
  %6 = alloca i32*, align 8
  %7 = alloca i8, align 1
  store i32* %0, i32** %4, align 8
  call void @llvm.dbg.declare(metadata i32** %4, metadata !1320, metadata !DIExpression()), !dbg !1321
  store i32* %1, i32** %5, align 8
  call void @llvm.dbg.declare(metadata i32** %5, metadata !1322, metadata !DIExpression()), !dbg !1323
  store i32* %2, i32** %6, align 8
  call void @llvm.dbg.declare(metadata i32** %6, metadata !1324, metadata !DIExpression()), !dbg !1325
  call void @llvm.dbg.declare(metadata i8* %7, metadata !1326, metadata !DIExpression()), !dbg !1327
  store i8 1, i8* %7, align 1, !dbg !1327
  %8 = load i32*, i32** %4, align 8, !dbg !1328
  %9 = load i32*, i32** %5, align 8, !dbg !1329
  %10 = load i32*, i32** %6, align 8, !dbg !1330
  %11 = call i32* @_ZNSt11__copy_moveILb1ELb1ESt26random_access_iterator_tagE8__copy_mIiEEPT_PKS3_S6_S4_(i32* %8, i32* %9, i32* %10), !dbg !1331
  ret i32* %11, !dbg !1332
}

; Function Attrs: noinline nounwind uwtable
define linkonce_odr i32* @_ZSt12__niter_baseIPiET_S1_(i32*) #2 comdat !dbg !1333 {
  %2 = alloca i32*, align 8
  store i32* %0, i32** %2, align 8
  call void @llvm.dbg.declare(metadata i32** %2, metadata !1336, metadata !DIExpression()), !dbg !1337
  %3 = load i32*, i32** %2, align 8, !dbg !1338
  ret i32* %3, !dbg !1339
}

; Function Attrs: noinline nounwind uwtable
define linkonce_odr i32* @_ZNSt11__copy_moveILb1ELb1ESt26random_access_iterator_tagE8__copy_mIiEEPT_PKS3_S6_S4_(i32*, i32*, i32*) #2 comdat align 2 !dbg !1340 {
  %4 = alloca i32*, align 8
  %5 = alloca i32*, align 8
  %6 = alloca i32*, align 8
  %7 = alloca i64, align 8
  store i32* %0, i32** %4, align 8
  call void @llvm.dbg.declare(metadata i32** %4, metadata !1357, metadata !DIExpression()), !dbg !1358
  store i32* %1, i32** %5, align 8
  call void @llvm.dbg.declare(metadata i32** %5, metadata !1359, metadata !DIExpression()), !dbg !1360
  store i32* %2, i32** %6, align 8
  call void @llvm.dbg.declare(metadata i32** %6, metadata !1361, metadata !DIExpression()), !dbg !1362
  call void @llvm.dbg.declare(metadata i64* %7, metadata !1363, metadata !DIExpression()), !dbg !1365
  %8 = load i32*, i32** %5, align 8, !dbg !1366
  %9 = load i32*, i32** %4, align 8, !dbg !1367
  %10 = ptrtoint i32* %8 to i64, !dbg !1368
  %11 = ptrtoint i32* %9 to i64, !dbg !1368
  %12 = sub i64 %10, %11, !dbg !1368
  %13 = sdiv exact i64 %12, 4, !dbg !1368
  store i64 %13, i64* %7, align 8, !dbg !1365
  %14 = load i64, i64* %7, align 8, !dbg !1369
  %15 = icmp ne i64 %14, 0, !dbg !1369
  br i1 %15, label %16, label %24, !dbg !1371

; <label>:16:                                     ; preds = %3
  %17 = load i32*, i32** %6, align 8, !dbg !1372
  %18 = bitcast i32* %17 to i8*, !dbg !1373
  %19 = load i32*, i32** %4, align 8, !dbg !1374
  %20 = bitcast i32* %19 to i8*, !dbg !1373
  %21 = load i64, i64* %7, align 8, !dbg !1375
  %22 = mul i64 4, %21, !dbg !1376
  %23 = call i8* @memmove(i8* %18, i8* %20, i64 %22), !dbg !1373
  br label %24, !dbg !1373

; <label>:24:                                     ; preds = %16, %3
  %25 = load i32*, i32** %6, align 8, !dbg !1377
  %26 = load i64, i64* %7, align 8, !dbg !1378
  %27 = getelementptr inbounds i32, i32* %25, i64 %26, !dbg !1379
  ret i32* %27, !dbg !1380
}

; Function Attrs: argmemonly nounwind
declare void @llvm.memmove.p0i8.p0i8.i64(i8* nocapture, i8* nocapture readonly, i64, i32, i1) #8

; Function Attrs: noinline nounwind uwtable
define linkonce_odr i32* @_ZSt12__miter_baseIPiET_S1_(i32*) #2 comdat !dbg !1381 {
  %2 = alloca i32*, align 8
  store i32* %0, i32** %2, align 8
  call void @llvm.dbg.declare(metadata i32** %2, metadata !1382, metadata !DIExpression()), !dbg !1383
  %3 = load i32*, i32** %2, align 8, !dbg !1384
  ret i32* %3, !dbg !1385
}

; Function Attrs: noinline nounwind uwtable
define linkonce_odr i32* @_ZNKSt13move_iteratorIPiE4baseEv(%"class.std::move_iterator"*) #2 comdat align 2 !dbg !1386 {
  %2 = alloca %"class.std::move_iterator"*, align 8
  store %"class.std::move_iterator"* %0, %"class.std::move_iterator"** %2, align 8
  call void @llvm.dbg.declare(metadata %"class.std::move_iterator"** %2, metadata !1387, metadata !DIExpression()), !dbg !1389
  %3 = load %"class.std::move_iterator"*, %"class.std::move_iterator"** %2, align 8
  %4 = getelementptr inbounds %"class.std::move_iterator", %"class.std::move_iterator"* %3, i32 0, i32 0, !dbg !1390
  %5 = load i32*, i32** %4, align 8, !dbg !1390
  ret i32* %5, !dbg !1391
}

; Function Attrs: noinline nounwind uwtable
define linkonce_odr void @_ZNSt13move_iteratorIPiEC2ES0_(%"class.std::move_iterator"*, i32*) unnamed_addr #2 comdat align 2 !dbg !1392 {
  %3 = alloca %"class.std::move_iterator"*, align 8
  %4 = alloca i32*, align 8
  store %"class.std::move_iterator"* %0, %"class.std::move_iterator"** %3, align 8
  call void @llvm.dbg.declare(metadata %"class.std::move_iterator"** %3, metadata !1393, metadata !DIExpression()), !dbg !1395
  store i32* %1, i32** %4, align 8
  call void @llvm.dbg.declare(metadata i32** %4, metadata !1396, metadata !DIExpression()), !dbg !1397
  %5 = load %"class.std::move_iterator"*, %"class.std::move_iterator"** %3, align 8
  %6 = getelementptr inbounds %"class.std::move_iterator", %"class.std::move_iterator"* %5, i32 0, i32 0, !dbg !1398
  %7 = load i32*, i32** %4, align 8, !dbg !1399
  store i32* %7, i32** %6, align 8, !dbg !1398
  ret void, !dbg !1400
}

; Function Attrs: noinline nounwind uwtable
define linkonce_odr void @_ZN9__gnu_cxx13new_allocatorIiE7destroyIiEEvPT_(%"class.__gnu_cxx::new_allocator"*, i32*) #2 comdat align 2 !dbg !1401 {
  %3 = alloca %"class.__gnu_cxx::new_allocator"*, align 8
  %4 = alloca i32*, align 8
  store %"class.__gnu_cxx::new_allocator"* %0, %"class.__gnu_cxx::new_allocator"** %3, align 8
  call void @llvm.dbg.declare(metadata %"class.__gnu_cxx::new_allocator"** %3, metadata !1405, metadata !DIExpression()), !dbg !1406
  store i32* %1, i32** %4, align 8
  call void @llvm.dbg.declare(metadata i32** %4, metadata !1407, metadata !DIExpression()), !dbg !1408
  %5 = load %"class.__gnu_cxx::new_allocator"*, %"class.__gnu_cxx::new_allocator"** %3, align 8
  ret void, !dbg !1409
}

; Function Attrs: noinline uwtable
define linkonce_odr void @_ZNKSt6vectorIiSaIiEE14_M_range_checkEm(%"class.std::vector"*, i64) #3 comdat align 2 !dbg !1410 {
  %3 = alloca %"class.std::vector"*, align 8
  %4 = alloca i64, align 8
  store %"class.std::vector"* %0, %"class.std::vector"** %3, align 8
  call void @llvm.dbg.declare(metadata %"class.std::vector"** %3, metadata !1411, metadata !DIExpression()), !dbg !1412
  store i64 %1, i64* %4, align 8
  call void @llvm.dbg.declare(metadata i64* %4, metadata !1413, metadata !DIExpression()), !dbg !1414
  %5 = load %"class.std::vector"*, %"class.std::vector"** %3, align 8
  %6 = load i64, i64* %4, align 8, !dbg !1415
  %7 = call i64 @_ZNKSt6vectorIiSaIiEE4sizeEv(%"class.std::vector"* %5) #10, !dbg !1417
  %8 = icmp uge i64 %6, %7, !dbg !1418
  br i1 %8, label %9, label %12, !dbg !1419

; <label>:9:                                      ; preds = %2
  %10 = load i64, i64* %4, align 8, !dbg !1420
  %11 = call i64 @_ZNKSt6vectorIiSaIiEE4sizeEv(%"class.std::vector"* %5) #10, !dbg !1421
  call void (i8*, ...) @_ZSt24__throw_out_of_range_fmtPKcz(i8* getelementptr inbounds ([74 x i8], [74 x i8]* @.str.2, i32 0, i32 0), i64 %10, i64 %11) #12, !dbg !1422
  unreachable, !dbg !1422

; <label>:12:                                     ; preds = %2
  ret void, !dbg !1423
}

; Function Attrs: noinline nounwind uwtable
define linkonce_odr dereferenceable(4) i32* @_ZNSt6vectorIiSaIiEEixEm(%"class.std::vector"*, i64) #2 comdat align 2 !dbg !1424 {
  %3 = alloca %"class.std::vector"*, align 8
  %4 = alloca i64, align 8
  store %"class.std::vector"* %0, %"class.std::vector"** %3, align 8
  call void @llvm.dbg.declare(metadata %"class.std::vector"** %3, metadata !1425, metadata !DIExpression()), !dbg !1426
  store i64 %1, i64* %4, align 8
  call void @llvm.dbg.declare(metadata i64* %4, metadata !1427, metadata !DIExpression()), !dbg !1428
  %5 = load %"class.std::vector"*, %"class.std::vector"** %3, align 8
  %6 = bitcast %"class.std::vector"* %5 to %"struct.std::_Vector_base"*, !dbg !1429
  %7 = getelementptr inbounds %"struct.std::_Vector_base", %"struct.std::_Vector_base"* %6, i32 0, i32 0, !dbg !1429
  %8 = getelementptr inbounds %"struct.std::_Vector_base<int, std::allocator<int> >::_Vector_impl", %"struct.std::_Vector_base<int, std::allocator<int> >::_Vector_impl"* %7, i32 0, i32 0, !dbg !1430
  %9 = load i32*, i32** %8, align 8, !dbg !1430
  %10 = load i64, i64* %4, align 8, !dbg !1431
  %11 = getelementptr inbounds i32, i32* %9, i64 %10, !dbg !1432
  ret i32* %11, !dbg !1433
}

; Function Attrs: noreturn
declare void @_ZSt24__throw_out_of_range_fmtPKcz(i8*, ...) #6

; Function Attrs: noinline nounwind uwtable
define i32 @klee_int(i8*) #2 !dbg !1434 {
  %2 = alloca i8*, align 8
  %3 = alloca i32, align 4
  store i8* %0, i8** %2, align 8
  call void @llvm.dbg.declare(metadata i8** %2, metadata !1437, metadata !DIExpression()), !dbg !1438
  call void @llvm.dbg.declare(metadata i32* %3, metadata !1439, metadata !DIExpression()), !dbg !1440
  %4 = bitcast i32* %3 to i8*, !dbg !1441
  %5 = load i8*, i8** %2, align 8, !dbg !1442
  call void @klee_make_symbolic(i8* %4, i64 4, i8* %5), !dbg !1443
  %6 = load i32, i32* %3, align 4, !dbg !1444
  ret i32 %6, !dbg !1445
}

declare void @klee_make_symbolic(i8*, i64, i8*) #9

; Function Attrs: noinline nounwind uwtable
define i8* @memcpy(i8*, i8*, i64) #2 !dbg !1446 {
  %4 = alloca i8*, align 8
  %5 = alloca i8*, align 8
  %6 = alloca i64, align 8
  %7 = alloca i8*, align 8
  %8 = alloca i8*, align 8
  store i8* %0, i8** %4, align 8
  call void @llvm.dbg.declare(metadata i8** %4, metadata !1451, metadata !DIExpression()), !dbg !1452
  store i8* %1, i8** %5, align 8
  call void @llvm.dbg.declare(metadata i8** %5, metadata !1453, metadata !DIExpression()), !dbg !1454
  store i64 %2, i64* %6, align 8
  call void @llvm.dbg.declare(metadata i64* %6, metadata !1455, metadata !DIExpression()), !dbg !1456
  call void @llvm.dbg.declare(metadata i8** %7, metadata !1457, metadata !DIExpression()), !dbg !1458
  %9 = load i8*, i8** %4, align 8, !dbg !1459
  store i8* %9, i8** %7, align 8, !dbg !1458
  call void @llvm.dbg.declare(metadata i8** %8, metadata !1460, metadata !DIExpression()), !dbg !1461
  %10 = load i8*, i8** %5, align 8, !dbg !1462
  store i8* %10, i8** %8, align 8, !dbg !1461
  br label %11, !dbg !1463

; <label>:11:                                     ; preds = %15, %3
  %12 = load i64, i64* %6, align 8, !dbg !1464
  %13 = add i64 %12, -1, !dbg !1464
  store i64 %13, i64* %6, align 8, !dbg !1464
  %14 = icmp ugt i64 %12, 0, !dbg !1465
  br i1 %14, label %15, label %21, !dbg !1463

; <label>:15:                                     ; preds = %11
  %16 = load i8*, i8** %8, align 8, !dbg !1466
  %17 = getelementptr inbounds i8, i8* %16, i32 1, !dbg !1466
  store i8* %17, i8** %8, align 8, !dbg !1466
  %18 = load i8, i8* %16, align 1, !dbg !1467
  %19 = load i8*, i8** %7, align 8, !dbg !1468
  %20 = getelementptr inbounds i8, i8* %19, i32 1, !dbg !1468
  store i8* %20, i8** %7, align 8, !dbg !1468
  store i8 %18, i8* %19, align 1, !dbg !1469
  br label %11, !dbg !1463, !llvm.loop !1470

; <label>:21:                                     ; preds = %11
  %22 = load i8*, i8** %4, align 8, !dbg !1471
  ret i8* %22, !dbg !1472
}

; Function Attrs: noinline nounwind uwtable
define i8* @memmove(i8*, i8*, i64) #2 !dbg !1473 {
  %4 = alloca i8*, align 8
  %5 = alloca i8*, align 8
  %6 = alloca i8*, align 8
  %7 = alloca i64, align 8
  %8 = alloca i8*, align 8
  %9 = alloca i8*, align 8
  store i8* %0, i8** %5, align 8
  call void @llvm.dbg.declare(metadata i8** %5, metadata !1474, metadata !DIExpression()), !dbg !1475
  store i8* %1, i8** %6, align 8
  call void @llvm.dbg.declare(metadata i8** %6, metadata !1476, metadata !DIExpression()), !dbg !1477
  store i64 %2, i64* %7, align 8
  call void @llvm.dbg.declare(metadata i64* %7, metadata !1478, metadata !DIExpression()), !dbg !1479
  call void @llvm.dbg.declare(metadata i8** %8, metadata !1480, metadata !DIExpression()), !dbg !1481
  %10 = load i8*, i8** %5, align 8, !dbg !1482
  store i8* %10, i8** %8, align 8, !dbg !1481
  call void @llvm.dbg.declare(metadata i8** %9, metadata !1483, metadata !DIExpression()), !dbg !1484
  %11 = load i8*, i8** %6, align 8, !dbg !1485
  store i8* %11, i8** %9, align 8, !dbg !1484
  %12 = load i8*, i8** %6, align 8, !dbg !1486
  %13 = load i8*, i8** %5, align 8, !dbg !1488
  %14 = icmp eq i8* %12, %13, !dbg !1489
  br i1 %14, label %15, label %17, !dbg !1490

; <label>:15:                                     ; preds = %3
  %16 = load i8*, i8** %5, align 8, !dbg !1491
  store i8* %16, i8** %4, align 8, !dbg !1492
  br label %53, !dbg !1492

; <label>:17:                                     ; preds = %3
  %18 = load i8*, i8** %6, align 8, !dbg !1493
  %19 = load i8*, i8** %5, align 8, !dbg !1495
  %20 = icmp ugt i8* %18, %19, !dbg !1496
  br i1 %20, label %21, label %32, !dbg !1497

; <label>:21:                                     ; preds = %17
  br label %22, !dbg !1498

; <label>:22:                                     ; preds = %26, %21
  %23 = load i64, i64* %7, align 8, !dbg !1500
  %24 = add i64 %23, -1, !dbg !1500
  store i64 %24, i64* %7, align 8, !dbg !1500
  %25 = icmp ne i64 %23, 0, !dbg !1498
  br i1 %25, label %26, label %51, !dbg !1498

; <label>:26:                                     ; preds = %22
  %27 = load i8*, i8** %9, align 8, !dbg !1501
  %28 = getelementptr inbounds i8, i8* %27, i32 1, !dbg !1501
  store i8* %28, i8** %9, align 8, !dbg !1501
  %29 = load i8, i8* %27, align 1, !dbg !1502
  %30 = load i8*, i8** %8, align 8, !dbg !1503
  %31 = getelementptr inbounds i8, i8* %30, i32 1, !dbg !1503
  store i8* %31, i8** %8, align 8, !dbg !1503
  store i8 %29, i8* %30, align 1, !dbg !1504
  br label %22, !dbg !1498, !llvm.loop !1505

; <label>:32:                                     ; preds = %17
  %33 = load i64, i64* %7, align 8, !dbg !1506
  %34 = sub i64 %33, 1, !dbg !1508
  %35 = load i8*, i8** %8, align 8, !dbg !1509
  %36 = getelementptr inbounds i8, i8* %35, i64 %34, !dbg !1509
  store i8* %36, i8** %8, align 8, !dbg !1509
  %37 = load i64, i64* %7, align 8, !dbg !1510
  %38 = sub i64 %37, 1, !dbg !1511
  %39 = load i8*, i8** %9, align 8, !dbg !1512
  %40 = getelementptr inbounds i8, i8* %39, i64 %38, !dbg !1512
  store i8* %40, i8** %9, align 8, !dbg !1512
  br label %41, !dbg !1513

; <label>:41:                                     ; preds = %45, %32
  %42 = load i64, i64* %7, align 8, !dbg !1514
  %43 = add i64 %42, -1, !dbg !1514
  store i64 %43, i64* %7, align 8, !dbg !1514
  %44 = icmp ne i64 %42, 0, !dbg !1513
  br i1 %44, label %45, label %51, !dbg !1513

; <label>:45:                                     ; preds = %41
  %46 = load i8*, i8** %9, align 8, !dbg !1515
  %47 = getelementptr inbounds i8, i8* %46, i32 -1, !dbg !1515
  store i8* %47, i8** %9, align 8, !dbg !1515
  %48 = load i8, i8* %46, align 1, !dbg !1516
  %49 = load i8*, i8** %8, align 8, !dbg !1517
  %50 = getelementptr inbounds i8, i8* %49, i32 -1, !dbg !1517
  store i8* %50, i8** %8, align 8, !dbg !1517
  store i8 %48, i8* %49, align 1, !dbg !1518
  br label %41, !dbg !1513, !llvm.loop !1519

; <label>:51:                                     ; preds = %41, %22
  %52 = load i8*, i8** %5, align 8, !dbg !1520
  store i8* %52, i8** %4, align 8, !dbg !1521
  br label %53, !dbg !1521

; <label>:53:                                     ; preds = %51, %15
  %54 = load i8*, i8** %4, align 8, !dbg !1522
  ret i8* %54, !dbg !1522
}

attributes #0 = { noinline norecurse uwtable "correctly-rounded-divide-sqrt-fp-math"="false" "disable-tail-calls"="false" "less-precise-fpmad"="false" "no-frame-pointer-elim"="true" "no-frame-pointer-elim-non-leaf" "no-infs-fp-math"="false" "no-jump-tables"="false" "no-nans-fp-math"="false" "no-signed-zeros-fp-math"="false" "no-trapping-math"="false" "stack-protector-buffer-size"="8" "target-cpu"="x86-64" "target-features"="+fxsr,+mmx,+sse,+sse2,+x87" "unsafe-fp-math"="false" "use-soft-float"="false" }
attributes #1 = { nounwind readnone speculatable }
attributes #2 = { noinline nounwind uwtable "correctly-rounded-divide-sqrt-fp-math"="false" "disable-tail-calls"="false" "less-precise-fpmad"="false" "no-frame-pointer-elim"="true" "no-frame-pointer-elim-non-leaf" "no-infs-fp-math"="false" "no-jump-tables"="false" "no-nans-fp-math"="false" "no-signed-zeros-fp-math"="false" "no-trapping-math"="false" "stack-protector-buffer-size"="8" "target-cpu"="x86-64" "target-features"="+fxsr,+mmx,+sse,+sse2,+x87" "unsafe-fp-math"="false" "use-soft-float"="false" }
attributes #3 = { noinline uwtable "correctly-rounded-divide-sqrt-fp-math"="false" "disable-tail-calls"="false" "less-precise-fpmad"="false" "no-frame-pointer-elim"="true" "no-frame-pointer-elim-non-leaf" "no-infs-fp-math"="false" "no-jump-tables"="false" "no-nans-fp-math"="false" "no-signed-zeros-fp-math"="false" "no-trapping-math"="false" "stack-protector-buffer-size"="8" "target-cpu"="x86-64" "target-features"="+fxsr,+mmx,+sse,+sse2,+x87" "unsafe-fp-math"="false" "use-soft-float"="false" }
attributes #4 = { noinline noreturn nounwind }
attributes #5 = { nobuiltin nounwind "correctly-rounded-divide-sqrt-fp-math"="false" "disable-tail-calls"="false" "less-precise-fpmad"="false" "no-frame-pointer-elim"="true" "no-frame-pointer-elim-non-leaf" "no-infs-fp-math"="false" "no-nans-fp-math"="false" "no-signed-zeros-fp-math"="false" "no-trapping-math"="false" "stack-protector-buffer-size"="8" "target-cpu"="x86-64" "target-features"="+fxsr,+mmx,+sse,+sse2,+x87" "unsafe-fp-math"="false" "use-soft-float"="false" }
attributes #6 = { noreturn "correctly-rounded-divide-sqrt-fp-math"="false" "disable-tail-calls"="false" "less-precise-fpmad"="false" "no-frame-pointer-elim"="true" "no-frame-pointer-elim-non-leaf" "no-infs-fp-math"="false" "no-nans-fp-math"="false" "no-signed-zeros-fp-math"="false" "no-trapping-math"="false" "stack-protector-buffer-size"="8" "target-cpu"="x86-64" "target-features"="+fxsr,+mmx,+sse,+sse2,+x87" "unsafe-fp-math"="false" "use-soft-float"="false" }
attributes #7 = { nobuiltin "correctly-rounded-divide-sqrt-fp-math"="false" "disable-tail-calls"="false" "less-precise-fpmad"="false" "no-frame-pointer-elim"="true" "no-frame-pointer-elim-non-leaf" "no-infs-fp-math"="false" "no-nans-fp-math"="false" "no-signed-zeros-fp-math"="false" "no-trapping-math"="false" "stack-protector-buffer-size"="8" "target-cpu"="x86-64" "target-features"="+fxsr,+mmx,+sse,+sse2,+x87" "unsafe-fp-math"="false" "use-soft-float"="false" }
attributes #8 = { argmemonly nounwind }
attributes #9 = { "correctly-rounded-divide-sqrt-fp-math"="false" "disable-tail-calls"="false" "less-precise-fpmad"="false" "no-frame-pointer-elim"="true" "no-frame-pointer-elim-non-leaf" "no-infs-fp-math"="false" "no-nans-fp-math"="false" "no-signed-zeros-fp-math"="false" "no-trapping-math"="false" "stack-protector-buffer-size"="8" "target-cpu"="x86-64" "target-features"="+fxsr,+mmx,+sse,+sse2,+x87" "unsafe-fp-math"="false" "use-soft-float"="false" }
attributes #10 = { nounwind }
attributes #11 = { noreturn nounwind }
attributes #12 = { noreturn }

!llvm.dbg.cu = !{!0, !612, !614, !616}
!llvm.module.flags = !{!618, !619, !620}
!llvm.ident = !{!621, !621, !621, !621}

!0 = distinct !DICompileUnit(language: DW_LANG_C_plus_plus, file: !1, producer: "clang version 6.0.0-1ubuntu2 (tags/RELEASE_600/final)", isOptimized: false, runtimeVersion: 0, emissionKind: FullDebug, enums: !2, retainedTypes: !13, imports: !547)
!1 = !DIFile(filename: "vector.cpp", directory: "/home/shihua/klee/examples/my_example")
!2 = !{!3}
!3 = !DICompositeType(tag: DW_TAG_enumeration_type, scope: !5, file: !4, line: 104, size: 32, elements: !11, identifier: "_ZTSNSt10__are_sameIiiEUt_E")
!4 = !DIFile(filename: "/usr/bin/../lib/gcc/x86_64-linux-gnu/7.4.0/../../../../include/c++/7.4.0/bits/cpp_type_traits.h", directory: "/home/shihua/klee/examples/my_example")
!5 = distinct !DICompositeType(tag: DW_TAG_structure_type, name: "__are_same<int, int>", scope: !6, file: !4, line: 102, size: 8, elements: !7, templateParams: !8, identifier: "_ZTSSt10__are_sameIiiE")
!6 = !DINamespace(name: "std", scope: null)
!7 = !{}
!8 = !{!9, !9}
!9 = !DITemplateTypeParameter(type: !10)
!10 = !DIBasicType(name: "int", size: 32, encoding: DW_ATE_signed)
!11 = !{!12}
!12 = !DIEnumerator(name: "__value", value: 1)
!13 = !{!14, !205, !206, !79, !207, !208, !82, !38, !495, !408}
!14 = !DIDerivedType(tag: DW_TAG_pointer_type, baseType: !15, size: 64)
!15 = !DIDerivedType(tag: DW_TAG_typedef, name: "_Tp_alloc_type", scope: !17, file: !16, line: 77, baseType: !202)
!16 = !DIFile(filename: "/usr/bin/../lib/gcc/x86_64-linux-gnu/7.4.0/../../../../include/c++/7.4.0/bits/stl_vector.h", directory: "/home/shihua/klee/examples/my_example")
!17 = distinct !DICompositeType(tag: DW_TAG_structure_type, name: "_Vector_base<int, std::allocator<int> >", scope: !6, file: !16, line: 74, size: 192, elements: !18, templateParams: !201, identifier: "_ZTSSt12_Vector_baseIiSaIiEE")
!18 = !{!19, !155, !160, !165, !169, !172, !177, !180, !183, !186, !190, !193, !194, !197, !200}
!19 = !DIDerivedType(tag: DW_TAG_member, name: "_M_impl", scope: !17, file: !16, line: 166, baseType: !20, size: 192)
!20 = distinct !DICompositeType(tag: DW_TAG_structure_type, name: "_Vector_impl", scope: !17, file: !16, line: 81, size: 192, elements: !21, identifier: "_ZTSNSt12_Vector_baseIiSaIiEE12_Vector_implE")
!21 = !{!22, !23, !136, !137, !138, !142, !147, !151}
!22 = !DIDerivedType(tag: DW_TAG_inheritance, scope: !20, baseType: !15)
!23 = !DIDerivedType(tag: DW_TAG_member, name: "_M_start", scope: !20, file: !16, line: 84, baseType: !24, size: 64)
!24 = !DIDerivedType(tag: DW_TAG_typedef, name: "pointer", scope: !17, file: !16, line: 79, baseType: !25)
!25 = !DIDerivedType(tag: DW_TAG_typedef, name: "pointer", scope: !27, file: !26, line: 59, baseType: !37)
!26 = !DIFile(filename: "/usr/bin/../lib/gcc/x86_64-linux-gnu/7.4.0/../../../../include/c++/7.4.0/ext/alloc_traits.h", directory: "/home/shihua/klee/examples/my_example")
!27 = distinct !DICompositeType(tag: DW_TAG_structure_type, name: "__alloc_traits<std::allocator<int> >", scope: !28, file: !26, line: 50, size: 8, elements: !29, templateParams: !119, identifier: "_ZTSN9__gnu_cxx14__alloc_traitsISaIiEEE")
!28 = !DINamespace(name: "__gnu_cxx", scope: null)
!29 = !{!30, !121, !124, !128, !132, !133, !134, !135}
!30 = !DIDerivedType(tag: DW_TAG_inheritance, scope: !27, baseType: !31)
!31 = distinct !DICompositeType(tag: DW_TAG_structure_type, name: "allocator_traits<std::allocator<int> >", scope: !6, file: !32, line: 384, size: 8, elements: !33, templateParams: !119, identifier: "_ZTSSt16allocator_traitsISaIiEE")
!32 = !DIFile(filename: "/usr/bin/../lib/gcc/x86_64-linux-gnu/7.4.0/../../../../include/c++/7.4.0/bits/alloc_traits.h", directory: "/home/shihua/klee/examples/my_example")
!33 = !{!34, !103, !107, !110, !116}
!34 = !DISubprogram(name: "allocate", linkageName: "_ZNSt16allocator_traitsISaIiEE8allocateERS0_m", scope: !31, file: !32, line: 435, type: !35, isLocal: false, isDefinition: false, scopeLine: 435, flags: DIFlagPrototyped | DIFlagStaticMember, isOptimized: false)
!35 = !DISubroutineType(types: !36)
!36 = !{!37, !39, !102}
!37 = !DIDerivedType(tag: DW_TAG_typedef, name: "pointer", scope: !31, file: !32, line: 392, baseType: !38)
!38 = !DIDerivedType(tag: DW_TAG_pointer_type, baseType: !10, size: 64)
!39 = !DIDerivedType(tag: DW_TAG_reference_type, baseType: !40, size: 64)
!40 = !DIDerivedType(tag: DW_TAG_typedef, name: "allocator_type", scope: !31, file: !32, line: 387, baseType: !41)
!41 = distinct !DICompositeType(tag: DW_TAG_class_type, name: "allocator<int>", scope: !6, file: !42, line: 108, size: 8, elements: !43, templateParams: !90, identifier: "_ZTSSaIiE")
!42 = !DIFile(filename: "/usr/bin/../lib/gcc/x86_64-linux-gnu/7.4.0/../../../../include/c++/7.4.0/bits/allocator.h", directory: "/home/shihua/klee/examples/my_example")
!43 = !{!44, !92, !96, !101}
!44 = !DIDerivedType(tag: DW_TAG_inheritance, scope: !41, baseType: !45, flags: DIFlagPublic)
!45 = !DIDerivedType(tag: DW_TAG_typedef, name: "__allocator_base<int>", scope: !6, file: !46, line: 48, baseType: !47)
!46 = !DIFile(filename: "/usr/bin/../lib/gcc/x86_64-linux-gnu/7.4.0/../../../../include/x86_64-linux-gnu/c++/7.4.0/bits/c++allocator.h", directory: "/home/shihua/klee/examples/my_example")
!47 = distinct !DICompositeType(tag: DW_TAG_class_type, name: "new_allocator<int>", scope: !28, file: !48, line: 58, size: 8, elements: !49, templateParams: !90, identifier: "_ZTSN9__gnu_cxx13new_allocatorIiEE")
!48 = !DIFile(filename: "/usr/bin/../lib/gcc/x86_64-linux-gnu/7.4.0/../../../../include/c++/7.4.0/ext/new_allocator.h", directory: "/home/shihua/klee/examples/my_example")
!49 = !{!50, !54, !59, !60, !67, !75, !84, !87}
!50 = !DISubprogram(name: "new_allocator", scope: !47, file: !48, line: 79, type: !51, isLocal: false, isDefinition: false, scopeLine: 79, flags: DIFlagPublic | DIFlagPrototyped, isOptimized: false)
!51 = !DISubroutineType(types: !52)
!52 = !{null, !53}
!53 = !DIDerivedType(tag: DW_TAG_pointer_type, baseType: !47, size: 64, flags: DIFlagArtificial | DIFlagObjectPointer)
!54 = !DISubprogram(name: "new_allocator", scope: !47, file: !48, line: 81, type: !55, isLocal: false, isDefinition: false, scopeLine: 81, flags: DIFlagPublic | DIFlagPrototyped, isOptimized: false)
!55 = !DISubroutineType(types: !56)
!56 = !{null, !53, !57}
!57 = !DIDerivedType(tag: DW_TAG_reference_type, baseType: !58, size: 64)
!58 = !DIDerivedType(tag: DW_TAG_const_type, baseType: !47)
!59 = !DISubprogram(name: "~new_allocator", scope: !47, file: !48, line: 86, type: !51, isLocal: false, isDefinition: false, scopeLine: 86, flags: DIFlagPublic | DIFlagPrototyped, isOptimized: false)
!60 = !DISubprogram(name: "address", linkageName: "_ZNK9__gnu_cxx13new_allocatorIiE7addressERi", scope: !47, file: !48, line: 89, type: !61, isLocal: false, isDefinition: false, scopeLine: 89, flags: DIFlagPublic | DIFlagPrototyped, isOptimized: false)
!61 = !DISubroutineType(types: !62)
!62 = !{!63, !64, !65}
!63 = !DIDerivedType(tag: DW_TAG_typedef, name: "pointer", scope: !47, file: !48, line: 63, baseType: !38)
!64 = !DIDerivedType(tag: DW_TAG_pointer_type, baseType: !58, size: 64, flags: DIFlagArtificial | DIFlagObjectPointer)
!65 = !DIDerivedType(tag: DW_TAG_typedef, name: "reference", scope: !47, file: !48, line: 65, baseType: !66)
!66 = !DIDerivedType(tag: DW_TAG_reference_type, baseType: !10, size: 64)
!67 = !DISubprogram(name: "address", linkageName: "_ZNK9__gnu_cxx13new_allocatorIiE7addressERKi", scope: !47, file: !48, line: 93, type: !68, isLocal: false, isDefinition: false, scopeLine: 93, flags: DIFlagPublic | DIFlagPrototyped, isOptimized: false)
!68 = !DISubroutineType(types: !69)
!69 = !{!70, !64, !73}
!70 = !DIDerivedType(tag: DW_TAG_typedef, name: "const_pointer", scope: !47, file: !48, line: 64, baseType: !71)
!71 = !DIDerivedType(tag: DW_TAG_pointer_type, baseType: !72, size: 64)
!72 = !DIDerivedType(tag: DW_TAG_const_type, baseType: !10)
!73 = !DIDerivedType(tag: DW_TAG_typedef, name: "const_reference", scope: !47, file: !48, line: 66, baseType: !74)
!74 = !DIDerivedType(tag: DW_TAG_reference_type, baseType: !72, size: 64)
!75 = !DISubprogram(name: "allocate", linkageName: "_ZN9__gnu_cxx13new_allocatorIiE8allocateEmPKv", scope: !47, file: !48, line: 99, type: !76, isLocal: false, isDefinition: false, scopeLine: 99, flags: DIFlagPublic | DIFlagPrototyped, isOptimized: false)
!76 = !DISubroutineType(types: !77)
!77 = !{!63, !53, !78, !82}
!78 = !DIDerivedType(tag: DW_TAG_typedef, name: "size_type", file: !48, line: 61, baseType: !79)
!79 = !DIDerivedType(tag: DW_TAG_typedef, name: "size_t", scope: !6, file: !80, line: 231, baseType: !81)
!80 = !DIFile(filename: "/usr/bin/../lib/gcc/x86_64-linux-gnu/7.4.0/../../../../include/x86_64-linux-gnu/c++/7.4.0/bits/c++config.h", directory: "/home/shihua/klee/examples/my_example")
!81 = !DIBasicType(name: "long unsigned int", size: 64, encoding: DW_ATE_unsigned)
!82 = !DIDerivedType(tag: DW_TAG_pointer_type, baseType: !83, size: 64)
!83 = !DIDerivedType(tag: DW_TAG_const_type, baseType: null)
!84 = !DISubprogram(name: "deallocate", linkageName: "_ZN9__gnu_cxx13new_allocatorIiE10deallocateEPim", scope: !47, file: !48, line: 116, type: !85, isLocal: false, isDefinition: false, scopeLine: 116, flags: DIFlagPublic | DIFlagPrototyped, isOptimized: false)
!85 = !DISubroutineType(types: !86)
!86 = !{null, !53, !63, !78}
!87 = !DISubprogram(name: "max_size", linkageName: "_ZNK9__gnu_cxx13new_allocatorIiE8max_sizeEv", scope: !47, file: !48, line: 129, type: !88, isLocal: false, isDefinition: false, scopeLine: 129, flags: DIFlagPublic | DIFlagPrototyped, isOptimized: false)
!88 = !DISubroutineType(types: !89)
!89 = !{!78, !64}
!90 = !{!91}
!91 = !DITemplateTypeParameter(name: "_Tp", type: !10)
!92 = !DISubprogram(name: "allocator", scope: !41, file: !42, line: 131, type: !93, isLocal: false, isDefinition: false, scopeLine: 131, flags: DIFlagPublic | DIFlagPrototyped, isOptimized: false)
!93 = !DISubroutineType(types: !94)
!94 = !{null, !95}
!95 = !DIDerivedType(tag: DW_TAG_pointer_type, baseType: !41, size: 64, flags: DIFlagArtificial | DIFlagObjectPointer)
!96 = !DISubprogram(name: "allocator", scope: !41, file: !42, line: 133, type: !97, isLocal: false, isDefinition: false, scopeLine: 133, flags: DIFlagPublic | DIFlagPrototyped, isOptimized: false)
!97 = !DISubroutineType(types: !98)
!98 = !{null, !95, !99}
!99 = !DIDerivedType(tag: DW_TAG_reference_type, baseType: !100, size: 64)
!100 = !DIDerivedType(tag: DW_TAG_const_type, baseType: !41)
!101 = !DISubprogram(name: "~allocator", scope: !41, file: !42, line: 139, type: !93, isLocal: false, isDefinition: false, scopeLine: 139, flags: DIFlagPublic | DIFlagPrototyped, isOptimized: false)
!102 = !DIDerivedType(tag: DW_TAG_typedef, name: "size_type", file: !32, line: 407, baseType: !79)
!103 = !DISubprogram(name: "allocate", linkageName: "_ZNSt16allocator_traitsISaIiEE8allocateERS0_mPKv", scope: !31, file: !32, line: 449, type: !104, isLocal: false, isDefinition: false, scopeLine: 449, flags: DIFlagPrototyped | DIFlagStaticMember, isOptimized: false)
!104 = !DISubroutineType(types: !105)
!105 = !{!37, !39, !102, !106}
!106 = !DIDerivedType(tag: DW_TAG_typedef, name: "const_void_pointer", file: !32, line: 401, baseType: !82)
!107 = !DISubprogram(name: "deallocate", linkageName: "_ZNSt16allocator_traitsISaIiEE10deallocateERS0_Pim", scope: !31, file: !32, line: 461, type: !108, isLocal: false, isDefinition: false, scopeLine: 461, flags: DIFlagPrototyped | DIFlagStaticMember, isOptimized: false)
!108 = !DISubroutineType(types: !109)
!109 = !{null, !39, !37, !102}
!110 = !DISubprogram(name: "max_size", linkageName: "_ZNSt16allocator_traitsISaIiEE8max_sizeERKS0_", scope: !31, file: !32, line: 495, type: !111, isLocal: false, isDefinition: false, scopeLine: 495, flags: DIFlagPrototyped | DIFlagStaticMember, isOptimized: false)
!111 = !DISubroutineType(types: !112)
!112 = !{!113, !114}
!113 = !DIDerivedType(tag: DW_TAG_typedef, name: "size_type", scope: !31, file: !32, line: 407, baseType: !79)
!114 = !DIDerivedType(tag: DW_TAG_reference_type, baseType: !115, size: 64)
!115 = !DIDerivedType(tag: DW_TAG_const_type, baseType: !40)
!116 = !DISubprogram(name: "select_on_container_copy_construction", linkageName: "_ZNSt16allocator_traitsISaIiEE37select_on_container_copy_constructionERKS0_", scope: !31, file: !32, line: 504, type: !117, isLocal: false, isDefinition: false, scopeLine: 504, flags: DIFlagPrototyped | DIFlagStaticMember, isOptimized: false)
!117 = !DISubroutineType(types: !118)
!118 = !{!40, !114}
!119 = !{!120}
!120 = !DITemplateTypeParameter(name: "_Alloc", type: !41)
!121 = !DISubprogram(name: "_S_select_on_copy", linkageName: "_ZN9__gnu_cxx14__alloc_traitsISaIiEE17_S_select_on_copyERKS1_", scope: !27, file: !26, line: 94, type: !122, isLocal: false, isDefinition: false, scopeLine: 94, flags: DIFlagPrototyped | DIFlagStaticMember, isOptimized: false)
!122 = !DISubroutineType(types: !123)
!123 = !{!41, !99}
!124 = !DISubprogram(name: "_S_on_swap", linkageName: "_ZN9__gnu_cxx14__alloc_traitsISaIiEE10_S_on_swapERS1_S3_", scope: !27, file: !26, line: 97, type: !125, isLocal: false, isDefinition: false, scopeLine: 97, flags: DIFlagPrototyped | DIFlagStaticMember, isOptimized: false)
!125 = !DISubroutineType(types: !126)
!126 = !{null, !127, !127}
!127 = !DIDerivedType(tag: DW_TAG_reference_type, baseType: !41, size: 64)
!128 = !DISubprogram(name: "_S_propagate_on_copy_assign", linkageName: "_ZN9__gnu_cxx14__alloc_traitsISaIiEE27_S_propagate_on_copy_assignEv", scope: !27, file: !26, line: 100, type: !129, isLocal: false, isDefinition: false, scopeLine: 100, flags: DIFlagPrototyped | DIFlagStaticMember, isOptimized: false)
!129 = !DISubroutineType(types: !130)
!130 = !{!131}
!131 = !DIBasicType(name: "bool", size: 8, encoding: DW_ATE_boolean)
!132 = !DISubprogram(name: "_S_propagate_on_move_assign", linkageName: "_ZN9__gnu_cxx14__alloc_traitsISaIiEE27_S_propagate_on_move_assignEv", scope: !27, file: !26, line: 103, type: !129, isLocal: false, isDefinition: false, scopeLine: 103, flags: DIFlagPrototyped | DIFlagStaticMember, isOptimized: false)
!133 = !DISubprogram(name: "_S_propagate_on_swap", linkageName: "_ZN9__gnu_cxx14__alloc_traitsISaIiEE20_S_propagate_on_swapEv", scope: !27, file: !26, line: 106, type: !129, isLocal: false, isDefinition: false, scopeLine: 106, flags: DIFlagPrototyped | DIFlagStaticMember, isOptimized: false)
!134 = !DISubprogram(name: "_S_always_equal", linkageName: "_ZN9__gnu_cxx14__alloc_traitsISaIiEE15_S_always_equalEv", scope: !27, file: !26, line: 109, type: !129, isLocal: false, isDefinition: false, scopeLine: 109, flags: DIFlagPrototyped | DIFlagStaticMember, isOptimized: false)
!135 = !DISubprogram(name: "_S_nothrow_move", linkageName: "_ZN9__gnu_cxx14__alloc_traitsISaIiEE15_S_nothrow_moveEv", scope: !27, file: !26, line: 112, type: !129, isLocal: false, isDefinition: false, scopeLine: 112, flags: DIFlagPrototyped | DIFlagStaticMember, isOptimized: false)
!136 = !DIDerivedType(tag: DW_TAG_member, name: "_M_finish", scope: !20, file: !16, line: 85, baseType: !24, size: 64, offset: 64)
!137 = !DIDerivedType(tag: DW_TAG_member, name: "_M_end_of_storage", scope: !20, file: !16, line: 86, baseType: !24, size: 64, offset: 128)
!138 = !DISubprogram(name: "_Vector_impl", scope: !20, file: !16, line: 88, type: !139, isLocal: false, isDefinition: false, scopeLine: 88, flags: DIFlagPrototyped, isOptimized: false)
!139 = !DISubroutineType(types: !140)
!140 = !{null, !141}
!141 = !DIDerivedType(tag: DW_TAG_pointer_type, baseType: !20, size: 64, flags: DIFlagArtificial | DIFlagObjectPointer)
!142 = !DISubprogram(name: "_Vector_impl", scope: !20, file: !16, line: 92, type: !143, isLocal: false, isDefinition: false, scopeLine: 92, flags: DIFlagPrototyped, isOptimized: false)
!143 = !DISubroutineType(types: !144)
!144 = !{null, !141, !145}
!145 = !DIDerivedType(tag: DW_TAG_reference_type, baseType: !146, size: 64)
!146 = !DIDerivedType(tag: DW_TAG_const_type, baseType: !15)
!147 = !DISubprogram(name: "_Vector_impl", scope: !20, file: !16, line: 97, type: !148, isLocal: false, isDefinition: false, scopeLine: 97, flags: DIFlagPrototyped, isOptimized: false)
!148 = !DISubroutineType(types: !149)
!149 = !{null, !141, !150}
!150 = !DIDerivedType(tag: DW_TAG_rvalue_reference_type, baseType: !15, size: 64)
!151 = !DISubprogram(name: "_M_swap_data", linkageName: "_ZNSt12_Vector_baseIiSaIiEE12_Vector_impl12_M_swap_dataERS2_", scope: !20, file: !16, line: 103, type: !152, isLocal: false, isDefinition: false, scopeLine: 103, flags: DIFlagPrototyped, isOptimized: false)
!152 = !DISubroutineType(types: !153)
!153 = !{null, !141, !154}
!154 = !DIDerivedType(tag: DW_TAG_reference_type, baseType: !20, size: 64)
!155 = !DISubprogram(name: "_M_get_Tp_allocator", linkageName: "_ZNSt12_Vector_baseIiSaIiEE19_M_get_Tp_allocatorEv", scope: !17, file: !16, line: 115, type: !156, isLocal: false, isDefinition: false, scopeLine: 115, flags: DIFlagPrototyped, isOptimized: false)
!156 = !DISubroutineType(types: !157)
!157 = !{!158, !159}
!158 = !DIDerivedType(tag: DW_TAG_reference_type, baseType: !15, size: 64)
!159 = !DIDerivedType(tag: DW_TAG_pointer_type, baseType: !17, size: 64, flags: DIFlagArtificial | DIFlagObjectPointer)
!160 = !DISubprogram(name: "_M_get_Tp_allocator", linkageName: "_ZNKSt12_Vector_baseIiSaIiEE19_M_get_Tp_allocatorEv", scope: !17, file: !16, line: 119, type: !161, isLocal: false, isDefinition: false, scopeLine: 119, flags: DIFlagPrototyped, isOptimized: false)
!161 = !DISubroutineType(types: !162)
!162 = !{!145, !163}
!163 = !DIDerivedType(tag: DW_TAG_pointer_type, baseType: !164, size: 64, flags: DIFlagArtificial | DIFlagObjectPointer)
!164 = !DIDerivedType(tag: DW_TAG_const_type, baseType: !17)
!165 = !DISubprogram(name: "get_allocator", linkageName: "_ZNKSt12_Vector_baseIiSaIiEE13get_allocatorEv", scope: !17, file: !16, line: 123, type: !166, isLocal: false, isDefinition: false, scopeLine: 123, flags: DIFlagPrototyped, isOptimized: false)
!166 = !DISubroutineType(types: !167)
!167 = !{!168, !163}
!168 = !DIDerivedType(tag: DW_TAG_typedef, name: "allocator_type", scope: !17, file: !16, line: 112, baseType: !41)
!169 = !DISubprogram(name: "_Vector_base", scope: !17, file: !16, line: 126, type: !170, isLocal: false, isDefinition: false, scopeLine: 126, flags: DIFlagPrototyped, isOptimized: false)
!170 = !DISubroutineType(types: !171)
!171 = !{null, !159}
!172 = !DISubprogram(name: "_Vector_base", scope: !17, file: !16, line: 129, type: !173, isLocal: false, isDefinition: false, scopeLine: 129, flags: DIFlagPrototyped, isOptimized: false)
!173 = !DISubroutineType(types: !174)
!174 = !{null, !159, !175}
!175 = !DIDerivedType(tag: DW_TAG_reference_type, baseType: !176, size: 64)
!176 = !DIDerivedType(tag: DW_TAG_const_type, baseType: !168)
!177 = !DISubprogram(name: "_Vector_base", scope: !17, file: !16, line: 132, type: !178, isLocal: false, isDefinition: false, scopeLine: 132, flags: DIFlagPrototyped, isOptimized: false)
!178 = !DISubroutineType(types: !179)
!179 = !{null, !159, !79}
!180 = !DISubprogram(name: "_Vector_base", scope: !17, file: !16, line: 136, type: !181, isLocal: false, isDefinition: false, scopeLine: 136, flags: DIFlagPrototyped, isOptimized: false)
!181 = !DISubroutineType(types: !182)
!182 = !{null, !159, !79, !175}
!183 = !DISubprogram(name: "_Vector_base", scope: !17, file: !16, line: 141, type: !184, isLocal: false, isDefinition: false, scopeLine: 141, flags: DIFlagPrototyped, isOptimized: false)
!184 = !DISubroutineType(types: !185)
!185 = !{null, !159, !150}
!186 = !DISubprogram(name: "_Vector_base", scope: !17, file: !16, line: 144, type: !187, isLocal: false, isDefinition: false, scopeLine: 144, flags: DIFlagPrototyped, isOptimized: false)
!187 = !DISubroutineType(types: !188)
!188 = !{null, !159, !189}
!189 = !DIDerivedType(tag: DW_TAG_rvalue_reference_type, baseType: !17, size: 64)
!190 = !DISubprogram(name: "_Vector_base", scope: !17, file: !16, line: 148, type: !191, isLocal: false, isDefinition: false, scopeLine: 148, flags: DIFlagPrototyped, isOptimized: false)
!191 = !DISubroutineType(types: !192)
!192 = !{null, !159, !189, !175}
!193 = !DISubprogram(name: "~_Vector_base", scope: !17, file: !16, line: 161, type: !170, isLocal: false, isDefinition: false, scopeLine: 161, flags: DIFlagPrototyped, isOptimized: false)
!194 = !DISubprogram(name: "_M_allocate", linkageName: "_ZNSt12_Vector_baseIiSaIiEE11_M_allocateEm", scope: !17, file: !16, line: 169, type: !195, isLocal: false, isDefinition: false, scopeLine: 169, flags: DIFlagPrototyped, isOptimized: false)
!195 = !DISubroutineType(types: !196)
!196 = !{!24, !159, !79}
!197 = !DISubprogram(name: "_M_deallocate", linkageName: "_ZNSt12_Vector_baseIiSaIiEE13_M_deallocateEPim", scope: !17, file: !16, line: 176, type: !198, isLocal: false, isDefinition: false, scopeLine: 176, flags: DIFlagPrototyped, isOptimized: false)
!198 = !DISubroutineType(types: !199)
!199 = !{null, !159, !24, !79}
!200 = !DISubprogram(name: "_M_create_storage", linkageName: "_ZNSt12_Vector_baseIiSaIiEE17_M_create_storageEm", scope: !17, file: !16, line: 185, type: !178, isLocal: false, isDefinition: false, scopeLine: 185, flags: DIFlagPrivate | DIFlagPrototyped, isOptimized: false)
!201 = !{!91, !120}
!202 = !DIDerivedType(tag: DW_TAG_typedef, name: "other", scope: !203, file: !26, line: 117, baseType: !204)
!203 = distinct !DICompositeType(tag: DW_TAG_structure_type, name: "rebind<int>", scope: !27, file: !26, line: 116, size: 8, elements: !7, templateParams: !90, identifier: "_ZTSN9__gnu_cxx14__alloc_traitsISaIiEE6rebindIiEE")
!204 = !DIDerivedType(tag: DW_TAG_typedef, name: "rebind_alloc<int>", scope: !31, file: !32, line: 422, baseType: !41)
!205 = !DIDerivedType(tag: DW_TAG_pointer_type, baseType: null, size: 64)
!206 = !DIDerivedType(tag: DW_TAG_typedef, name: "size_type", file: !16, line: 242, baseType: !79)
!207 = !DIDerivedType(tag: DW_TAG_pointer_type, baseType: !146, size: 64)
!208 = !DIDerivedType(tag: DW_TAG_typedef, name: "iterator", scope: !209, file: !16, line: 237, baseType: !438)
!209 = distinct !DICompositeType(tag: DW_TAG_class_type, name: "vector<int, std::allocator<int> >", scope: !6, file: !16, line: 216, size: 192, elements: !210, templateParams: !201, identifier: "_ZTSSt6vectorIiSaIiEE")
!210 = !{!211, !212, !216, !222, !225, !231, !236, !240, !243, !246, !251, !252, !256, !259, !262, !265, !268, !271, !278, !279, !280, !285, !290, !291, !292, !293, !294, !295, !296, !299, !300, !303, !304, !305, !306, !309, !310, !318, !325, !328, !329, !330, !333, !336, !337, !338, !341, !344, !347, !351, !352, !355, !358, !361, !364, !367, !370, !373, !374, !375, !376, !377, !380, !381, !384, !385, !386, !393, !397, !400, !403, !422}
!211 = !DIDerivedType(tag: DW_TAG_inheritance, scope: !209, baseType: !17, flags: DIFlagProtected)
!212 = !DISubprogram(name: "vector", scope: !209, file: !16, line: 259, type: !213, isLocal: false, isDefinition: false, scopeLine: 259, flags: DIFlagPublic | DIFlagPrototyped, isOptimized: false)
!213 = !DISubroutineType(types: !214)
!214 = !{null, !215}
!215 = !DIDerivedType(tag: DW_TAG_pointer_type, baseType: !209, size: 64, flags: DIFlagArtificial | DIFlagObjectPointer)
!216 = !DISubprogram(name: "vector", scope: !209, file: !16, line: 270, type: !217, isLocal: false, isDefinition: false, scopeLine: 270, flags: DIFlagPublic | DIFlagExplicit | DIFlagPrototyped, isOptimized: false)
!217 = !DISubroutineType(types: !218)
!218 = !{null, !215, !219}
!219 = !DIDerivedType(tag: DW_TAG_reference_type, baseType: !220, size: 64)
!220 = !DIDerivedType(tag: DW_TAG_const_type, baseType: !221)
!221 = !DIDerivedType(tag: DW_TAG_typedef, name: "allocator_type", scope: !209, file: !16, line: 244, baseType: !41)
!222 = !DISubprogram(name: "vector", scope: !209, file: !16, line: 283, type: !223, isLocal: false, isDefinition: false, scopeLine: 283, flags: DIFlagPublic | DIFlagExplicit | DIFlagPrototyped, isOptimized: false)
!223 = !DISubroutineType(types: !224)
!224 = !{null, !215, !206, !219}
!225 = !DISubprogram(name: "vector", scope: !209, file: !16, line: 295, type: !226, isLocal: false, isDefinition: false, scopeLine: 295, flags: DIFlagPublic | DIFlagPrototyped, isOptimized: false)
!226 = !DISubroutineType(types: !227)
!227 = !{null, !215, !206, !228, !219}
!228 = !DIDerivedType(tag: DW_TAG_reference_type, baseType: !229, size: 64)
!229 = !DIDerivedType(tag: DW_TAG_const_type, baseType: !230)
!230 = !DIDerivedType(tag: DW_TAG_typedef, name: "value_type", scope: !209, file: !16, line: 232, baseType: !10)
!231 = !DISubprogram(name: "vector", scope: !209, file: !16, line: 326, type: !232, isLocal: false, isDefinition: false, scopeLine: 326, flags: DIFlagPublic | DIFlagPrototyped, isOptimized: false)
!232 = !DISubroutineType(types: !233)
!233 = !{null, !215, !234}
!234 = !DIDerivedType(tag: DW_TAG_reference_type, baseType: !235, size: 64)
!235 = !DIDerivedType(tag: DW_TAG_const_type, baseType: !209)
!236 = !DISubprogram(name: "vector", scope: !209, file: !16, line: 344, type: !237, isLocal: false, isDefinition: false, scopeLine: 344, flags: DIFlagPublic | DIFlagPrototyped, isOptimized: false)
!237 = !DISubroutineType(types: !238)
!238 = !{null, !215, !239}
!239 = !DIDerivedType(tag: DW_TAG_rvalue_reference_type, baseType: !209, size: 64)
!240 = !DISubprogram(name: "vector", scope: !209, file: !16, line: 348, type: !241, isLocal: false, isDefinition: false, scopeLine: 348, flags: DIFlagPublic | DIFlagPrototyped, isOptimized: false)
!241 = !DISubroutineType(types: !242)
!242 = !{null, !215, !234, !219}
!243 = !DISubprogram(name: "vector", scope: !209, file: !16, line: 358, type: !244, isLocal: false, isDefinition: false, scopeLine: 358, flags: DIFlagPublic | DIFlagPrototyped, isOptimized: false)
!244 = !DISubroutineType(types: !245)
!245 = !{null, !215, !239, !219}
!246 = !DISubprogram(name: "vector", scope: !209, file: !16, line: 383, type: !247, isLocal: false, isDefinition: false, scopeLine: 383, flags: DIFlagPublic | DIFlagPrototyped, isOptimized: false)
!247 = !DISubroutineType(types: !248)
!248 = !{null, !215, !249, !219}
!249 = !DICompositeType(tag: DW_TAG_class_type, name: "initializer_list<int>", scope: !6, file: !250, line: 47, flags: DIFlagFwdDecl, identifier: "_ZTSSt16initializer_listIiE")
!250 = !DIFile(filename: "/usr/bin/../lib/gcc/x86_64-linux-gnu/7.4.0/../../../../include/c++/7.4.0/initializer_list", directory: "/home/shihua/klee/examples/my_example")
!251 = !DISubprogram(name: "~vector", scope: !209, file: !16, line: 433, type: !213, isLocal: false, isDefinition: false, scopeLine: 433, flags: DIFlagPublic | DIFlagPrototyped, isOptimized: false)
!252 = !DISubprogram(name: "operator=", linkageName: "_ZNSt6vectorIiSaIiEEaSERKS1_", scope: !209, file: !16, line: 447, type: !253, isLocal: false, isDefinition: false, scopeLine: 447, flags: DIFlagPublic | DIFlagPrototyped, isOptimized: false)
!253 = !DISubroutineType(types: !254)
!254 = !{!255, !215, !234}
!255 = !DIDerivedType(tag: DW_TAG_reference_type, baseType: !209, size: 64)
!256 = !DISubprogram(name: "operator=", linkageName: "_ZNSt6vectorIiSaIiEEaSEOS1_", scope: !209, file: !16, line: 461, type: !257, isLocal: false, isDefinition: false, scopeLine: 461, flags: DIFlagPublic | DIFlagPrototyped, isOptimized: false)
!257 = !DISubroutineType(types: !258)
!258 = !{!255, !215, !239}
!259 = !DISubprogram(name: "operator=", linkageName: "_ZNSt6vectorIiSaIiEEaSESt16initializer_listIiE", scope: !209, file: !16, line: 482, type: !260, isLocal: false, isDefinition: false, scopeLine: 482, flags: DIFlagPublic | DIFlagPrototyped, isOptimized: false)
!260 = !DISubroutineType(types: !261)
!261 = !{!255, !215, !249}
!262 = !DISubprogram(name: "assign", linkageName: "_ZNSt6vectorIiSaIiEE6assignEmRKi", scope: !209, file: !16, line: 501, type: !263, isLocal: false, isDefinition: false, scopeLine: 501, flags: DIFlagPublic | DIFlagPrototyped, isOptimized: false)
!263 = !DISubroutineType(types: !264)
!264 = !{null, !215, !206, !228}
!265 = !DISubprogram(name: "assign", linkageName: "_ZNSt6vectorIiSaIiEE6assignESt16initializer_listIiE", scope: !209, file: !16, line: 546, type: !266, isLocal: false, isDefinition: false, scopeLine: 546, flags: DIFlagPublic | DIFlagPrototyped, isOptimized: false)
!266 = !DISubroutineType(types: !267)
!267 = !{null, !215, !249}
!268 = !DISubprogram(name: "begin", linkageName: "_ZNSt6vectorIiSaIiEE5beginEv", scope: !209, file: !16, line: 563, type: !269, isLocal: false, isDefinition: false, scopeLine: 563, flags: DIFlagPublic | DIFlagPrototyped, isOptimized: false)
!269 = !DISubroutineType(types: !270)
!270 = !{!208, !215}
!271 = !DISubprogram(name: "begin", linkageName: "_ZNKSt6vectorIiSaIiEE5beginEv", scope: !209, file: !16, line: 572, type: !272, isLocal: false, isDefinition: false, scopeLine: 572, flags: DIFlagPublic | DIFlagPrototyped, isOptimized: false)
!272 = !DISubroutineType(types: !273)
!273 = !{!274, !277}
!274 = !DIDerivedType(tag: DW_TAG_typedef, name: "const_iterator", scope: !209, file: !16, line: 239, baseType: !275)
!275 = !DICompositeType(tag: DW_TAG_class_type, name: "__normal_iterator<const int *, std::vector<int, std::allocator<int> > >", scope: !28, file: !276, line: 763, flags: DIFlagFwdDecl, identifier: "_ZTSN9__gnu_cxx17__normal_iteratorIPKiSt6vectorIiSaIiEEEE")
!276 = !DIFile(filename: "/usr/bin/../lib/gcc/x86_64-linux-gnu/7.4.0/../../../../include/c++/7.4.0/bits/stl_iterator.h", directory: "/home/shihua/klee/examples/my_example")
!277 = !DIDerivedType(tag: DW_TAG_pointer_type, baseType: !235, size: 64, flags: DIFlagArtificial | DIFlagObjectPointer)
!278 = !DISubprogram(name: "end", linkageName: "_ZNSt6vectorIiSaIiEE3endEv", scope: !209, file: !16, line: 581, type: !269, isLocal: false, isDefinition: false, scopeLine: 581, flags: DIFlagPublic | DIFlagPrototyped, isOptimized: false)
!279 = !DISubprogram(name: "end", linkageName: "_ZNKSt6vectorIiSaIiEE3endEv", scope: !209, file: !16, line: 590, type: !272, isLocal: false, isDefinition: false, scopeLine: 590, flags: DIFlagPublic | DIFlagPrototyped, isOptimized: false)
!280 = !DISubprogram(name: "rbegin", linkageName: "_ZNSt6vectorIiSaIiEE6rbeginEv", scope: !209, file: !16, line: 599, type: !281, isLocal: false, isDefinition: false, scopeLine: 599, flags: DIFlagPublic | DIFlagPrototyped, isOptimized: false)
!281 = !DISubroutineType(types: !282)
!282 = !{!283, !215}
!283 = !DIDerivedType(tag: DW_TAG_typedef, name: "reverse_iterator", scope: !209, file: !16, line: 241, baseType: !284)
!284 = !DICompositeType(tag: DW_TAG_class_type, name: "reverse_iterator<__gnu_cxx::__normal_iterator<int *, std::vector<int, std::allocator<int> > > >", scope: !6, file: !276, line: 101, flags: DIFlagFwdDecl, identifier: "_ZTSSt16reverse_iteratorIN9__gnu_cxx17__normal_iteratorIPiSt6vectorIiSaIiEEEEE")
!285 = !DISubprogram(name: "rbegin", linkageName: "_ZNKSt6vectorIiSaIiEE6rbeginEv", scope: !209, file: !16, line: 608, type: !286, isLocal: false, isDefinition: false, scopeLine: 608, flags: DIFlagPublic | DIFlagPrototyped, isOptimized: false)
!286 = !DISubroutineType(types: !287)
!287 = !{!288, !277}
!288 = !DIDerivedType(tag: DW_TAG_typedef, name: "const_reverse_iterator", scope: !209, file: !16, line: 240, baseType: !289)
!289 = !DICompositeType(tag: DW_TAG_class_type, name: "reverse_iterator<__gnu_cxx::__normal_iterator<const int *, std::vector<int, std::allocator<int> > > >", scope: !6, file: !276, line: 101, flags: DIFlagFwdDecl, identifier: "_ZTSSt16reverse_iteratorIN9__gnu_cxx17__normal_iteratorIPKiSt6vectorIiSaIiEEEEE")
!290 = !DISubprogram(name: "rend", linkageName: "_ZNSt6vectorIiSaIiEE4rendEv", scope: !209, file: !16, line: 617, type: !281, isLocal: false, isDefinition: false, scopeLine: 617, flags: DIFlagPublic | DIFlagPrototyped, isOptimized: false)
!291 = !DISubprogram(name: "rend", linkageName: "_ZNKSt6vectorIiSaIiEE4rendEv", scope: !209, file: !16, line: 626, type: !286, isLocal: false, isDefinition: false, scopeLine: 626, flags: DIFlagPublic | DIFlagPrototyped, isOptimized: false)
!292 = !DISubprogram(name: "cbegin", linkageName: "_ZNKSt6vectorIiSaIiEE6cbeginEv", scope: !209, file: !16, line: 636, type: !272, isLocal: false, isDefinition: false, scopeLine: 636, flags: DIFlagPublic | DIFlagPrototyped, isOptimized: false)
!293 = !DISubprogram(name: "cend", linkageName: "_ZNKSt6vectorIiSaIiEE4cendEv", scope: !209, file: !16, line: 645, type: !272, isLocal: false, isDefinition: false, scopeLine: 645, flags: DIFlagPublic | DIFlagPrototyped, isOptimized: false)
!294 = !DISubprogram(name: "crbegin", linkageName: "_ZNKSt6vectorIiSaIiEE7crbeginEv", scope: !209, file: !16, line: 654, type: !286, isLocal: false, isDefinition: false, scopeLine: 654, flags: DIFlagPublic | DIFlagPrototyped, isOptimized: false)
!295 = !DISubprogram(name: "crend", linkageName: "_ZNKSt6vectorIiSaIiEE5crendEv", scope: !209, file: !16, line: 663, type: !286, isLocal: false, isDefinition: false, scopeLine: 663, flags: DIFlagPublic | DIFlagPrototyped, isOptimized: false)
!296 = !DISubprogram(name: "size", linkageName: "_ZNKSt6vectorIiSaIiEE4sizeEv", scope: !209, file: !16, line: 670, type: !297, isLocal: false, isDefinition: false, scopeLine: 670, flags: DIFlagPublic | DIFlagPrototyped, isOptimized: false)
!297 = !DISubroutineType(types: !298)
!298 = !{!206, !277}
!299 = !DISubprogram(name: "max_size", linkageName: "_ZNKSt6vectorIiSaIiEE8max_sizeEv", scope: !209, file: !16, line: 675, type: !297, isLocal: false, isDefinition: false, scopeLine: 675, flags: DIFlagPublic | DIFlagPrototyped, isOptimized: false)
!300 = !DISubprogram(name: "resize", linkageName: "_ZNSt6vectorIiSaIiEE6resizeEm", scope: !209, file: !16, line: 689, type: !301, isLocal: false, isDefinition: false, scopeLine: 689, flags: DIFlagPublic | DIFlagPrototyped, isOptimized: false)
!301 = !DISubroutineType(types: !302)
!302 = !{null, !215, !206}
!303 = !DISubprogram(name: "resize", linkageName: "_ZNSt6vectorIiSaIiEE6resizeEmRKi", scope: !209, file: !16, line: 709, type: !263, isLocal: false, isDefinition: false, scopeLine: 709, flags: DIFlagPublic | DIFlagPrototyped, isOptimized: false)
!304 = !DISubprogram(name: "shrink_to_fit", linkageName: "_ZNSt6vectorIiSaIiEE13shrink_to_fitEv", scope: !209, file: !16, line: 741, type: !213, isLocal: false, isDefinition: false, scopeLine: 741, flags: DIFlagPublic | DIFlagPrototyped, isOptimized: false)
!305 = !DISubprogram(name: "capacity", linkageName: "_ZNKSt6vectorIiSaIiEE8capacityEv", scope: !209, file: !16, line: 750, type: !297, isLocal: false, isDefinition: false, scopeLine: 750, flags: DIFlagPublic | DIFlagPrototyped, isOptimized: false)
!306 = !DISubprogram(name: "empty", linkageName: "_ZNKSt6vectorIiSaIiEE5emptyEv", scope: !209, file: !16, line: 759, type: !307, isLocal: false, isDefinition: false, scopeLine: 759, flags: DIFlagPublic | DIFlagPrototyped, isOptimized: false)
!307 = !DISubroutineType(types: !308)
!308 = !{!131, !277}
!309 = !DISubprogram(name: "reserve", linkageName: "_ZNSt6vectorIiSaIiEE7reserveEm", scope: !209, file: !16, line: 780, type: !301, isLocal: false, isDefinition: false, scopeLine: 780, flags: DIFlagPublic | DIFlagPrototyped, isOptimized: false)
!310 = !DISubprogram(name: "operator[]", linkageName: "_ZNSt6vectorIiSaIiEEixEm", scope: !209, file: !16, line: 795, type: !311, isLocal: false, isDefinition: false, scopeLine: 795, flags: DIFlagPublic | DIFlagPrototyped, isOptimized: false)
!311 = !DISubroutineType(types: !312)
!312 = !{!313, !215, !206}
!313 = !DIDerivedType(tag: DW_TAG_typedef, name: "reference", scope: !209, file: !16, line: 235, baseType: !314)
!314 = !DIDerivedType(tag: DW_TAG_typedef, name: "reference", scope: !27, file: !26, line: 64, baseType: !315)
!315 = !DIDerivedType(tag: DW_TAG_reference_type, baseType: !316, size: 64)
!316 = !DIDerivedType(tag: DW_TAG_typedef, name: "value_type", scope: !27, file: !26, line: 58, baseType: !317)
!317 = !DIDerivedType(tag: DW_TAG_typedef, name: "value_type", scope: !31, file: !32, line: 389, baseType: !10)
!318 = !DISubprogram(name: "operator[]", linkageName: "_ZNKSt6vectorIiSaIiEEixEm", scope: !209, file: !16, line: 813, type: !319, isLocal: false, isDefinition: false, scopeLine: 813, flags: DIFlagPublic | DIFlagPrototyped, isOptimized: false)
!319 = !DISubroutineType(types: !320)
!320 = !{!321, !277, !206}
!321 = !DIDerivedType(tag: DW_TAG_typedef, name: "const_reference", scope: !209, file: !16, line: 236, baseType: !322)
!322 = !DIDerivedType(tag: DW_TAG_typedef, name: "const_reference", scope: !27, file: !26, line: 65, baseType: !323)
!323 = !DIDerivedType(tag: DW_TAG_reference_type, baseType: !324, size: 64)
!324 = !DIDerivedType(tag: DW_TAG_const_type, baseType: !316)
!325 = !DISubprogram(name: "_M_range_check", linkageName: "_ZNKSt6vectorIiSaIiEE14_M_range_checkEm", scope: !209, file: !16, line: 822, type: !326, isLocal: false, isDefinition: false, scopeLine: 822, flags: DIFlagProtected | DIFlagPrototyped, isOptimized: false)
!326 = !DISubroutineType(types: !327)
!327 = !{null, !277, !206}
!328 = !DISubprogram(name: "at", linkageName: "_ZNSt6vectorIiSaIiEE2atEm", scope: !209, file: !16, line: 844, type: !311, isLocal: false, isDefinition: false, scopeLine: 844, flags: DIFlagPublic | DIFlagPrototyped, isOptimized: false)
!329 = !DISubprogram(name: "at", linkageName: "_ZNKSt6vectorIiSaIiEE2atEm", scope: !209, file: !16, line: 862, type: !319, isLocal: false, isDefinition: false, scopeLine: 862, flags: DIFlagPublic | DIFlagPrototyped, isOptimized: false)
!330 = !DISubprogram(name: "front", linkageName: "_ZNSt6vectorIiSaIiEE5frontEv", scope: !209, file: !16, line: 873, type: !331, isLocal: false, isDefinition: false, scopeLine: 873, flags: DIFlagPublic | DIFlagPrototyped, isOptimized: false)
!331 = !DISubroutineType(types: !332)
!332 = !{!313, !215}
!333 = !DISubprogram(name: "front", linkageName: "_ZNKSt6vectorIiSaIiEE5frontEv", scope: !209, file: !16, line: 884, type: !334, isLocal: false, isDefinition: false, scopeLine: 884, flags: DIFlagPublic | DIFlagPrototyped, isOptimized: false)
!334 = !DISubroutineType(types: !335)
!335 = !{!321, !277}
!336 = !DISubprogram(name: "back", linkageName: "_ZNSt6vectorIiSaIiEE4backEv", scope: !209, file: !16, line: 895, type: !331, isLocal: false, isDefinition: false, scopeLine: 895, flags: DIFlagPublic | DIFlagPrototyped, isOptimized: false)
!337 = !DISubprogram(name: "back", linkageName: "_ZNKSt6vectorIiSaIiEE4backEv", scope: !209, file: !16, line: 906, type: !334, isLocal: false, isDefinition: false, scopeLine: 906, flags: DIFlagPublic | DIFlagPrototyped, isOptimized: false)
!338 = !DISubprogram(name: "data", linkageName: "_ZNSt6vectorIiSaIiEE4dataEv", scope: !209, file: !16, line: 920, type: !339, isLocal: false, isDefinition: false, scopeLine: 920, flags: DIFlagPublic | DIFlagPrototyped, isOptimized: false)
!339 = !DISubroutineType(types: !340)
!340 = !{!38, !215}
!341 = !DISubprogram(name: "data", linkageName: "_ZNKSt6vectorIiSaIiEE4dataEv", scope: !209, file: !16, line: 924, type: !342, isLocal: false, isDefinition: false, scopeLine: 924, flags: DIFlagPublic | DIFlagPrototyped, isOptimized: false)
!342 = !DISubroutineType(types: !343)
!343 = !{!71, !277}
!344 = !DISubprogram(name: "push_back", linkageName: "_ZNSt6vectorIiSaIiEE9push_backERKi", scope: !209, file: !16, line: 939, type: !345, isLocal: false, isDefinition: false, scopeLine: 939, flags: DIFlagPublic | DIFlagPrototyped, isOptimized: false)
!345 = !DISubroutineType(types: !346)
!346 = !{null, !215, !228}
!347 = !DISubprogram(name: "push_back", linkageName: "_ZNSt6vectorIiSaIiEE9push_backEOi", scope: !209, file: !16, line: 953, type: !348, isLocal: false, isDefinition: false, scopeLine: 953, flags: DIFlagPublic | DIFlagPrototyped, isOptimized: false)
!348 = !DISubroutineType(types: !349)
!349 = !{null, !215, !350}
!350 = !DIDerivedType(tag: DW_TAG_rvalue_reference_type, baseType: !230, size: 64)
!351 = !DISubprogram(name: "pop_back", linkageName: "_ZNSt6vectorIiSaIiEE8pop_backEv", scope: !209, file: !16, line: 975, type: !213, isLocal: false, isDefinition: false, scopeLine: 975, flags: DIFlagPublic | DIFlagPrototyped, isOptimized: false)
!352 = !DISubprogram(name: "insert", linkageName: "_ZNSt6vectorIiSaIiEE6insertEN9__gnu_cxx17__normal_iteratorIPKiS1_EERS4_", scope: !209, file: !16, line: 1012, type: !353, isLocal: false, isDefinition: false, scopeLine: 1012, flags: DIFlagPublic | DIFlagPrototyped, isOptimized: false)
!353 = !DISubroutineType(types: !354)
!354 = !{!208, !215, !274, !228}
!355 = !DISubprogram(name: "insert", linkageName: "_ZNSt6vectorIiSaIiEE6insertEN9__gnu_cxx17__normal_iteratorIPKiS1_EEOi", scope: !209, file: !16, line: 1042, type: !356, isLocal: false, isDefinition: false, scopeLine: 1042, flags: DIFlagPublic | DIFlagPrototyped, isOptimized: false)
!356 = !DISubroutineType(types: !357)
!357 = !{!208, !215, !274, !350}
!358 = !DISubprogram(name: "insert", linkageName: "_ZNSt6vectorIiSaIiEE6insertEN9__gnu_cxx17__normal_iteratorIPKiS1_EESt16initializer_listIiE", scope: !209, file: !16, line: 1059, type: !359, isLocal: false, isDefinition: false, scopeLine: 1059, flags: DIFlagPublic | DIFlagPrototyped, isOptimized: false)
!359 = !DISubroutineType(types: !360)
!360 = !{!208, !215, !274, !249}
!361 = !DISubprogram(name: "insert", linkageName: "_ZNSt6vectorIiSaIiEE6insertEN9__gnu_cxx17__normal_iteratorIPKiS1_EEmRS4_", scope: !209, file: !16, line: 1084, type: !362, isLocal: false, isDefinition: false, scopeLine: 1084, flags: DIFlagPublic | DIFlagPrototyped, isOptimized: false)
!362 = !DISubroutineType(types: !363)
!363 = !{!208, !215, !274, !206, !228}
!364 = !DISubprogram(name: "erase", linkageName: "_ZNSt6vectorIiSaIiEE5eraseEN9__gnu_cxx17__normal_iteratorIPKiS1_EE", scope: !209, file: !16, line: 1179, type: !365, isLocal: false, isDefinition: false, scopeLine: 1179, flags: DIFlagPublic | DIFlagPrototyped, isOptimized: false)
!365 = !DISubroutineType(types: !366)
!366 = !{!208, !215, !274}
!367 = !DISubprogram(name: "erase", linkageName: "_ZNSt6vectorIiSaIiEE5eraseEN9__gnu_cxx17__normal_iteratorIPKiS1_EES6_", scope: !209, file: !16, line: 1206, type: !368, isLocal: false, isDefinition: false, scopeLine: 1206, flags: DIFlagPublic | DIFlagPrototyped, isOptimized: false)
!368 = !DISubroutineType(types: !369)
!369 = !{!208, !215, !274, !274}
!370 = !DISubprogram(name: "swap", linkageName: "_ZNSt6vectorIiSaIiEE4swapERS1_", scope: !209, file: !16, line: 1229, type: !371, isLocal: false, isDefinition: false, scopeLine: 1229, flags: DIFlagPublic | DIFlagPrototyped, isOptimized: false)
!371 = !DISubroutineType(types: !372)
!372 = !{null, !215, !255}
!373 = !DISubprogram(name: "clear", linkageName: "_ZNSt6vectorIiSaIiEE5clearEv", scope: !209, file: !16, line: 1247, type: !213, isLocal: false, isDefinition: false, scopeLine: 1247, flags: DIFlagPublic | DIFlagPrototyped, isOptimized: false)
!374 = !DISubprogram(name: "_M_fill_initialize", linkageName: "_ZNSt6vectorIiSaIiEE18_M_fill_initializeEmRKi", scope: !209, file: !16, line: 1339, type: !263, isLocal: false, isDefinition: false, scopeLine: 1339, flags: DIFlagProtected | DIFlagPrototyped, isOptimized: false)
!375 = !DISubprogram(name: "_M_default_initialize", linkageName: "_ZNSt6vectorIiSaIiEE21_M_default_initializeEm", scope: !209, file: !16, line: 1349, type: !301, isLocal: false, isDefinition: false, scopeLine: 1349, flags: DIFlagProtected | DIFlagPrototyped, isOptimized: false)
!376 = !DISubprogram(name: "_M_fill_assign", linkageName: "_ZNSt6vectorIiSaIiEE14_M_fill_assignEmRKi", scope: !209, file: !16, line: 1391, type: !263, isLocal: false, isDefinition: false, scopeLine: 1391, flags: DIFlagProtected | DIFlagPrototyped, isOptimized: false)
!377 = !DISubprogram(name: "_M_fill_insert", linkageName: "_ZNSt6vectorIiSaIiEE14_M_fill_insertEN9__gnu_cxx17__normal_iteratorIPiS1_EEmRKi", scope: !209, file: !16, line: 1430, type: !378, isLocal: false, isDefinition: false, scopeLine: 1430, flags: DIFlagProtected | DIFlagPrototyped, isOptimized: false)
!378 = !DISubroutineType(types: !379)
!379 = !{null, !215, !208, !206, !228}
!380 = !DISubprogram(name: "_M_default_append", linkageName: "_ZNSt6vectorIiSaIiEE17_M_default_appendEm", scope: !209, file: !16, line: 1435, type: !301, isLocal: false, isDefinition: false, scopeLine: 1435, flags: DIFlagProtected | DIFlagPrototyped, isOptimized: false)
!381 = !DISubprogram(name: "_M_shrink_to_fit", linkageName: "_ZNSt6vectorIiSaIiEE16_M_shrink_to_fitEv", scope: !209, file: !16, line: 1438, type: !382, isLocal: false, isDefinition: false, scopeLine: 1438, flags: DIFlagProtected | DIFlagPrototyped, isOptimized: false)
!382 = !DISubroutineType(types: !383)
!383 = !{!131, !215}
!384 = !DISubprogram(name: "_M_insert_rval", linkageName: "_ZNSt6vectorIiSaIiEE14_M_insert_rvalEN9__gnu_cxx17__normal_iteratorIPKiS1_EEOi", scope: !209, file: !16, line: 1487, type: !356, isLocal: false, isDefinition: false, scopeLine: 1487, flags: DIFlagProtected | DIFlagPrototyped, isOptimized: false)
!385 = !DISubprogram(name: "_M_emplace_aux", linkageName: "_ZNSt6vectorIiSaIiEE14_M_emplace_auxEN9__gnu_cxx17__normal_iteratorIPKiS1_EEOi", scope: !209, file: !16, line: 1496, type: !356, isLocal: false, isDefinition: false, scopeLine: 1496, flags: DIFlagProtected | DIFlagPrototyped, isOptimized: false)
!386 = !DISubprogram(name: "_M_check_len", linkageName: "_ZNKSt6vectorIiSaIiEE12_M_check_lenEmPKc", scope: !209, file: !16, line: 1502, type: !387, isLocal: false, isDefinition: false, scopeLine: 1502, flags: DIFlagProtected | DIFlagPrototyped, isOptimized: false)
!387 = !DISubroutineType(types: !388)
!388 = !{!389, !277, !206, !390}
!389 = !DIDerivedType(tag: DW_TAG_typedef, name: "size_type", scope: !209, file: !16, line: 242, baseType: !79)
!390 = !DIDerivedType(tag: DW_TAG_pointer_type, baseType: !391, size: 64)
!391 = !DIDerivedType(tag: DW_TAG_const_type, baseType: !392)
!392 = !DIBasicType(name: "char", size: 8, encoding: DW_ATE_signed_char)
!393 = !DISubprogram(name: "_M_erase_at_end", linkageName: "_ZNSt6vectorIiSaIiEE15_M_erase_at_endEPi", scope: !209, file: !16, line: 1516, type: !394, isLocal: false, isDefinition: false, scopeLine: 1516, flags: DIFlagProtected | DIFlagPrototyped, isOptimized: false)
!394 = !DISubroutineType(types: !395)
!395 = !{null, !215, !396}
!396 = !DIDerivedType(tag: DW_TAG_typedef, name: "pointer", scope: !209, file: !16, line: 233, baseType: !24)
!397 = !DISubprogram(name: "_M_erase", linkageName: "_ZNSt6vectorIiSaIiEE8_M_eraseEN9__gnu_cxx17__normal_iteratorIPiS1_EE", scope: !209, file: !16, line: 1523, type: !398, isLocal: false, isDefinition: false, scopeLine: 1523, flags: DIFlagProtected | DIFlagPrototyped, isOptimized: false)
!398 = !DISubroutineType(types: !399)
!399 = !{!208, !215, !208}
!400 = !DISubprogram(name: "_M_erase", linkageName: "_ZNSt6vectorIiSaIiEE8_M_eraseEN9__gnu_cxx17__normal_iteratorIPiS1_EES5_", scope: !209, file: !16, line: 1526, type: !401, isLocal: false, isDefinition: false, scopeLine: 1526, flags: DIFlagProtected | DIFlagPrototyped, isOptimized: false)
!401 = !DISubroutineType(types: !402)
!402 = !{!208, !215, !208, !208}
!403 = !DISubprogram(name: "_M_move_assign", linkageName: "_ZNSt6vectorIiSaIiEE14_M_move_assignEOS1_St17integral_constantIbLb1EE", scope: !209, file: !16, line: 1534, type: !404, isLocal: false, isDefinition: false, scopeLine: 1534, flags: DIFlagPrototyped, isOptimized: false)
!404 = !DISubroutineType(types: !405)
!405 = !{null, !215, !239, !406}
!406 = !DIDerivedType(tag: DW_TAG_typedef, name: "true_type", scope: !6, file: !407, line: 87, baseType: !408)
!407 = !DIFile(filename: "/usr/bin/../lib/gcc/x86_64-linux-gnu/7.4.0/../../../../include/c++/7.4.0/type_traits", directory: "/home/shihua/klee/examples/my_example")
!408 = distinct !DICompositeType(tag: DW_TAG_structure_type, name: "integral_constant<bool, true>", scope: !6, file: !407, line: 69, size: 8, elements: !409, templateParams: !419, identifier: "_ZTSSt17integral_constantIbLb1EE")
!409 = !{!410, !412, !418}
!410 = !DIDerivedType(tag: DW_TAG_member, name: "value", scope: !408, file: !407, line: 71, baseType: !411, flags: DIFlagStaticMember, extraData: i1 true)
!411 = !DIDerivedType(tag: DW_TAG_const_type, baseType: !131)
!412 = !DISubprogram(name: "operator bool", linkageName: "_ZNKSt17integral_constantIbLb1EEcvbEv", scope: !408, file: !407, line: 74, type: !413, isLocal: false, isDefinition: false, scopeLine: 74, flags: DIFlagPrototyped, isOptimized: false)
!413 = !DISubroutineType(types: !414)
!414 = !{!415, !416}
!415 = !DIDerivedType(tag: DW_TAG_typedef, name: "value_type", scope: !408, file: !407, line: 72, baseType: !131)
!416 = !DIDerivedType(tag: DW_TAG_pointer_type, baseType: !417, size: 64, flags: DIFlagArtificial | DIFlagObjectPointer)
!417 = !DIDerivedType(tag: DW_TAG_const_type, baseType: !408)
!418 = !DISubprogram(name: "operator()", linkageName: "_ZNKSt17integral_constantIbLb1EEclEv", scope: !408, file: !407, line: 79, type: !413, isLocal: false, isDefinition: false, scopeLine: 79, flags: DIFlagPrototyped, isOptimized: false)
!419 = !{!420, !421}
!420 = !DITemplateTypeParameter(name: "_Tp", type: !131)
!421 = !DITemplateValueParameter(name: "__v", type: !131, value: i8 1)
!422 = !DISubprogram(name: "_M_move_assign", linkageName: "_ZNSt6vectorIiSaIiEE14_M_move_assignEOS1_St17integral_constantIbLb0EE", scope: !209, file: !16, line: 1545, type: !423, isLocal: false, isDefinition: false, scopeLine: 1545, flags: DIFlagPrototyped, isOptimized: false)
!423 = !DISubroutineType(types: !424)
!424 = !{null, !215, !239, !425}
!425 = !DIDerivedType(tag: DW_TAG_typedef, name: "false_type", scope: !6, file: !407, line: 90, baseType: !426)
!426 = distinct !DICompositeType(tag: DW_TAG_structure_type, name: "integral_constant<bool, false>", scope: !6, file: !407, line: 69, size: 8, elements: !427, templateParams: !436, identifier: "_ZTSSt17integral_constantIbLb0EE")
!427 = !{!428, !429, !435}
!428 = !DIDerivedType(tag: DW_TAG_member, name: "value", scope: !426, file: !407, line: 71, baseType: !411, flags: DIFlagStaticMember, extraData: i1 false)
!429 = !DISubprogram(name: "operator bool", linkageName: "_ZNKSt17integral_constantIbLb0EEcvbEv", scope: !426, file: !407, line: 74, type: !430, isLocal: false, isDefinition: false, scopeLine: 74, flags: DIFlagPrototyped, isOptimized: false)
!430 = !DISubroutineType(types: !431)
!431 = !{!432, !433}
!432 = !DIDerivedType(tag: DW_TAG_typedef, name: "value_type", scope: !426, file: !407, line: 72, baseType: !131)
!433 = !DIDerivedType(tag: DW_TAG_pointer_type, baseType: !434, size: 64, flags: DIFlagArtificial | DIFlagObjectPointer)
!434 = !DIDerivedType(tag: DW_TAG_const_type, baseType: !426)
!435 = !DISubprogram(name: "operator()", linkageName: "_ZNKSt17integral_constantIbLb0EEclEv", scope: !426, file: !407, line: 79, type: !430, isLocal: false, isDefinition: false, scopeLine: 79, flags: DIFlagPrototyped, isOptimized: false)
!436 = !{!420, !437}
!437 = !DITemplateValueParameter(name: "__v", type: !131, value: i8 0)
!438 = distinct !DICompositeType(tag: DW_TAG_class_type, name: "__normal_iterator<int *, std::vector<int, std::allocator<int> > >", scope: !28, file: !276, line: 763, size: 64, elements: !439, templateParams: !493, identifier: "_ZTSN9__gnu_cxx17__normal_iteratorIPiSt6vectorIiSaIiEEEE")
!439 = !{!440, !441, !445, !450, !461, !466, !470, !473, !474, !475, !482, !485, !488, !489, !490}
!440 = !DIDerivedType(tag: DW_TAG_member, name: "_M_current", scope: !438, file: !276, line: 766, baseType: !38, size: 64, flags: DIFlagProtected)
!441 = !DISubprogram(name: "__normal_iterator", scope: !438, file: !276, line: 778, type: !442, isLocal: false, isDefinition: false, scopeLine: 778, flags: DIFlagPublic | DIFlagPrototyped, isOptimized: false)
!442 = !DISubroutineType(types: !443)
!443 = !{null, !444}
!444 = !DIDerivedType(tag: DW_TAG_pointer_type, baseType: !438, size: 64, flags: DIFlagArtificial | DIFlagObjectPointer)
!445 = !DISubprogram(name: "__normal_iterator", scope: !438, file: !276, line: 782, type: !446, isLocal: false, isDefinition: false, scopeLine: 782, flags: DIFlagPublic | DIFlagExplicit | DIFlagPrototyped, isOptimized: false)
!446 = !DISubroutineType(types: !447)
!447 = !{null, !444, !448}
!448 = !DIDerivedType(tag: DW_TAG_reference_type, baseType: !449, size: 64)
!449 = !DIDerivedType(tag: DW_TAG_const_type, baseType: !38)
!450 = !DISubprogram(name: "operator*", linkageName: "_ZNK9__gnu_cxx17__normal_iteratorIPiSt6vectorIiSaIiEEEdeEv", scope: !438, file: !276, line: 795, type: !451, isLocal: false, isDefinition: false, scopeLine: 795, flags: DIFlagPublic | DIFlagPrototyped, isOptimized: false)
!451 = !DISubroutineType(types: !452)
!452 = !{!453, !459}
!453 = !DIDerivedType(tag: DW_TAG_typedef, name: "reference", scope: !438, file: !276, line: 775, baseType: !454)
!454 = !DIDerivedType(tag: DW_TAG_typedef, name: "reference", scope: !456, file: !455, line: 184, baseType: !66)
!455 = !DIFile(filename: "/usr/bin/../lib/gcc/x86_64-linux-gnu/7.4.0/../../../../include/c++/7.4.0/bits/stl_iterator_base_types.h", directory: "/home/shihua/klee/examples/my_example")
!456 = distinct !DICompositeType(tag: DW_TAG_structure_type, name: "iterator_traits<int *>", scope: !6, file: !455, line: 178, size: 8, elements: !7, templateParams: !457, identifier: "_ZTSSt15iterator_traitsIPiE")
!457 = !{!458}
!458 = !DITemplateTypeParameter(name: "_Iterator", type: !38)
!459 = !DIDerivedType(tag: DW_TAG_pointer_type, baseType: !460, size: 64, flags: DIFlagArtificial | DIFlagObjectPointer)
!460 = !DIDerivedType(tag: DW_TAG_const_type, baseType: !438)
!461 = !DISubprogram(name: "operator->", linkageName: "_ZNK9__gnu_cxx17__normal_iteratorIPiSt6vectorIiSaIiEEEptEv", scope: !438, file: !276, line: 799, type: !462, isLocal: false, isDefinition: false, scopeLine: 799, flags: DIFlagPublic | DIFlagPrototyped, isOptimized: false)
!462 = !DISubroutineType(types: !463)
!463 = !{!464, !459}
!464 = !DIDerivedType(tag: DW_TAG_typedef, name: "pointer", scope: !438, file: !276, line: 776, baseType: !465)
!465 = !DIDerivedType(tag: DW_TAG_typedef, name: "pointer", scope: !456, file: !455, line: 183, baseType: !38)
!466 = !DISubprogram(name: "operator++", linkageName: "_ZN9__gnu_cxx17__normal_iteratorIPiSt6vectorIiSaIiEEEppEv", scope: !438, file: !276, line: 803, type: !467, isLocal: false, isDefinition: false, scopeLine: 803, flags: DIFlagPublic | DIFlagPrototyped, isOptimized: false)
!467 = !DISubroutineType(types: !468)
!468 = !{!469, !444}
!469 = !DIDerivedType(tag: DW_TAG_reference_type, baseType: !438, size: 64)
!470 = !DISubprogram(name: "operator++", linkageName: "_ZN9__gnu_cxx17__normal_iteratorIPiSt6vectorIiSaIiEEEppEi", scope: !438, file: !276, line: 810, type: !471, isLocal: false, isDefinition: false, scopeLine: 810, flags: DIFlagPublic | DIFlagPrototyped, isOptimized: false)
!471 = !DISubroutineType(types: !472)
!472 = !{!438, !444, !10}
!473 = !DISubprogram(name: "operator--", linkageName: "_ZN9__gnu_cxx17__normal_iteratorIPiSt6vectorIiSaIiEEEmmEv", scope: !438, file: !276, line: 815, type: !467, isLocal: false, isDefinition: false, scopeLine: 815, flags: DIFlagPublic | DIFlagPrototyped, isOptimized: false)
!474 = !DISubprogram(name: "operator--", linkageName: "_ZN9__gnu_cxx17__normal_iteratorIPiSt6vectorIiSaIiEEEmmEi", scope: !438, file: !276, line: 822, type: !471, isLocal: false, isDefinition: false, scopeLine: 822, flags: DIFlagPublic | DIFlagPrototyped, isOptimized: false)
!475 = !DISubprogram(name: "operator[]", linkageName: "_ZNK9__gnu_cxx17__normal_iteratorIPiSt6vectorIiSaIiEEEixEl", scope: !438, file: !276, line: 827, type: !476, isLocal: false, isDefinition: false, scopeLine: 827, flags: DIFlagPublic | DIFlagPrototyped, isOptimized: false)
!476 = !DISubroutineType(types: !477)
!477 = !{!453, !459, !478}
!478 = !DIDerivedType(tag: DW_TAG_typedef, name: "difference_type", scope: !438, file: !276, line: 774, baseType: !479)
!479 = !DIDerivedType(tag: DW_TAG_typedef, name: "difference_type", scope: !456, file: !455, line: 182, baseType: !480)
!480 = !DIDerivedType(tag: DW_TAG_typedef, name: "ptrdiff_t", scope: !6, file: !80, line: 232, baseType: !481)
!481 = !DIBasicType(name: "long int", size: 64, encoding: DW_ATE_signed)
!482 = !DISubprogram(name: "operator+=", linkageName: "_ZN9__gnu_cxx17__normal_iteratorIPiSt6vectorIiSaIiEEEpLEl", scope: !438, file: !276, line: 831, type: !483, isLocal: false, isDefinition: false, scopeLine: 831, flags: DIFlagPublic | DIFlagPrototyped, isOptimized: false)
!483 = !DISubroutineType(types: !484)
!484 = !{!469, !444, !478}
!485 = !DISubprogram(name: "operator+", linkageName: "_ZNK9__gnu_cxx17__normal_iteratorIPiSt6vectorIiSaIiEEEplEl", scope: !438, file: !276, line: 835, type: !486, isLocal: false, isDefinition: false, scopeLine: 835, flags: DIFlagPublic | DIFlagPrototyped, isOptimized: false)
!486 = !DISubroutineType(types: !487)
!487 = !{!438, !459, !478}
!488 = !DISubprogram(name: "operator-=", linkageName: "_ZN9__gnu_cxx17__normal_iteratorIPiSt6vectorIiSaIiEEEmIEl", scope: !438, file: !276, line: 839, type: !483, isLocal: false, isDefinition: false, scopeLine: 839, flags: DIFlagPublic | DIFlagPrototyped, isOptimized: false)
!489 = !DISubprogram(name: "operator-", linkageName: "_ZNK9__gnu_cxx17__normal_iteratorIPiSt6vectorIiSaIiEEEmiEl", scope: !438, file: !276, line: 843, type: !486, isLocal: false, isDefinition: false, scopeLine: 843, flags: DIFlagPublic | DIFlagPrototyped, isOptimized: false)
!490 = !DISubprogram(name: "base", linkageName: "_ZNK9__gnu_cxx17__normal_iteratorIPiSt6vectorIiSaIiEEE4baseEv", scope: !438, file: !276, line: 847, type: !491, isLocal: false, isDefinition: false, scopeLine: 847, flags: DIFlagPublic | DIFlagPrototyped, isOptimized: false)
!491 = !DISubroutineType(types: !492)
!492 = !{!448, !459}
!493 = !{!458, !494}
!494 = !DITemplateTypeParameter(name: "_Container", type: !209)
!495 = distinct !DICompositeType(tag: DW_TAG_class_type, name: "move_iterator<int *>", scope: !6, file: !276, line: 1013, size: 64, elements: !496, templateParams: !457, identifier: "_ZTSSt13move_iteratorIPiE")
!496 = !{!497, !498, !502, !506, !511, !522, !526, !530, !533, !534, !535, !539, !542, !543, !544}
!497 = !DIDerivedType(tag: DW_TAG_member, name: "_M_current", scope: !495, file: !276, line: 1016, baseType: !38, size: 64, flags: DIFlagProtected)
!498 = !DISubprogram(name: "move_iterator", scope: !495, file: !276, line: 1035, type: !499, isLocal: false, isDefinition: false, scopeLine: 1035, flags: DIFlagPublic | DIFlagPrototyped, isOptimized: false)
!499 = !DISubroutineType(types: !500)
!500 = !{null, !501}
!501 = !DIDerivedType(tag: DW_TAG_pointer_type, baseType: !495, size: 64, flags: DIFlagArtificial | DIFlagObjectPointer)
!502 = !DISubprogram(name: "move_iterator", scope: !495, file: !276, line: 1039, type: !503, isLocal: false, isDefinition: false, scopeLine: 1039, flags: DIFlagPublic | DIFlagExplicit | DIFlagPrototyped, isOptimized: false)
!503 = !DISubroutineType(types: !504)
!504 = !{null, !501, !505}
!505 = !DIDerivedType(tag: DW_TAG_typedef, name: "iterator_type", scope: !495, file: !276, line: 1022, baseType: !38)
!506 = !DISubprogram(name: "base", linkageName: "_ZNKSt13move_iteratorIPiE4baseEv", scope: !495, file: !276, line: 1048, type: !507, isLocal: false, isDefinition: false, scopeLine: 1048, flags: DIFlagPublic | DIFlagPrototyped, isOptimized: false)
!507 = !DISubroutineType(types: !508)
!508 = !{!505, !509}
!509 = !DIDerivedType(tag: DW_TAG_pointer_type, baseType: !510, size: 64, flags: DIFlagArtificial | DIFlagObjectPointer)
!510 = !DIDerivedType(tag: DW_TAG_const_type, baseType: !495)
!511 = !DISubprogram(name: "operator*", linkageName: "_ZNKSt13move_iteratorIPiEdeEv", scope: !495, file: !276, line: 1052, type: !512, isLocal: false, isDefinition: false, scopeLine: 1052, flags: DIFlagPublic | DIFlagPrototyped, isOptimized: false)
!512 = !DISubroutineType(types: !513)
!513 = !{!514, !509}
!514 = !DIDerivedType(tag: DW_TAG_typedef, name: "reference", scope: !495, file: !276, line: 1032, baseType: !515)
!515 = !DIDerivedType(tag: DW_TAG_typedef, name: "type", scope: !516, file: !407, line: 2166, baseType: !520)
!516 = distinct !DICompositeType(tag: DW_TAG_structure_type, name: "conditional<true, int &&, int &>", scope: !6, file: !407, line: 2165, size: 8, elements: !7, templateParams: !517, identifier: "_ZTSSt11conditionalILb1EOiRiE")
!517 = !{!518, !519, !521}
!518 = !DITemplateValueParameter(name: "_Cond", type: !131, value: i8 1)
!519 = !DITemplateTypeParameter(name: "_Iftrue", type: !520)
!520 = !DIDerivedType(tag: DW_TAG_rvalue_reference_type, baseType: !10, size: 64)
!521 = !DITemplateTypeParameter(name: "_Iffalse", type: !66)
!522 = !DISubprogram(name: "operator->", linkageName: "_ZNKSt13move_iteratorIPiEptEv", scope: !495, file: !276, line: 1056, type: !523, isLocal: false, isDefinition: false, scopeLine: 1056, flags: DIFlagPublic | DIFlagPrototyped, isOptimized: false)
!523 = !DISubroutineType(types: !524)
!524 = !{!525, !509}
!525 = !DIDerivedType(tag: DW_TAG_typedef, name: "pointer", scope: !495, file: !276, line: 1027, baseType: !38)
!526 = !DISubprogram(name: "operator++", linkageName: "_ZNSt13move_iteratorIPiEppEv", scope: !495, file: !276, line: 1060, type: !527, isLocal: false, isDefinition: false, scopeLine: 1060, flags: DIFlagPublic | DIFlagPrototyped, isOptimized: false)
!527 = !DISubroutineType(types: !528)
!528 = !{!529, !501}
!529 = !DIDerivedType(tag: DW_TAG_reference_type, baseType: !495, size: 64)
!530 = !DISubprogram(name: "operator++", linkageName: "_ZNSt13move_iteratorIPiEppEi", scope: !495, file: !276, line: 1067, type: !531, isLocal: false, isDefinition: false, scopeLine: 1067, flags: DIFlagPublic | DIFlagPrototyped, isOptimized: false)
!531 = !DISubroutineType(types: !532)
!532 = !{!495, !501, !10}
!533 = !DISubprogram(name: "operator--", linkageName: "_ZNSt13move_iteratorIPiEmmEv", scope: !495, file: !276, line: 1075, type: !527, isLocal: false, isDefinition: false, scopeLine: 1075, flags: DIFlagPublic | DIFlagPrototyped, isOptimized: false)
!534 = !DISubprogram(name: "operator--", linkageName: "_ZNSt13move_iteratorIPiEmmEi", scope: !495, file: !276, line: 1082, type: !531, isLocal: false, isDefinition: false, scopeLine: 1082, flags: DIFlagPublic | DIFlagPrototyped, isOptimized: false)
!535 = !DISubprogram(name: "operator+", linkageName: "_ZNKSt13move_iteratorIPiEplEl", scope: !495, file: !276, line: 1090, type: !536, isLocal: false, isDefinition: false, scopeLine: 1090, flags: DIFlagPublic | DIFlagPrototyped, isOptimized: false)
!536 = !DISubroutineType(types: !537)
!537 = !{!495, !509, !538}
!538 = !DIDerivedType(tag: DW_TAG_typedef, name: "difference_type", scope: !495, file: !276, line: 1025, baseType: !479)
!539 = !DISubprogram(name: "operator+=", linkageName: "_ZNSt13move_iteratorIPiEpLEl", scope: !495, file: !276, line: 1094, type: !540, isLocal: false, isDefinition: false, scopeLine: 1094, flags: DIFlagPublic | DIFlagPrototyped, isOptimized: false)
!540 = !DISubroutineType(types: !541)
!541 = !{!529, !501, !538}
!542 = !DISubprogram(name: "operator-", linkageName: "_ZNKSt13move_iteratorIPiEmiEl", scope: !495, file: !276, line: 1101, type: !536, isLocal: false, isDefinition: false, scopeLine: 1101, flags: DIFlagPublic | DIFlagPrototyped, isOptimized: false)
!543 = !DISubprogram(name: "operator-=", linkageName: "_ZNSt13move_iteratorIPiEmIEl", scope: !495, file: !276, line: 1105, type: !540, isLocal: false, isDefinition: false, scopeLine: 1105, flags: DIFlagPublic | DIFlagPrototyped, isOptimized: false)
!544 = !DISubprogram(name: "operator[]", linkageName: "_ZNKSt13move_iteratorIPiEixEl", scope: !495, file: !276, line: 1112, type: !545, isLocal: false, isDefinition: false, scopeLine: 1112, flags: DIFlagPublic | DIFlagPrototyped, isOptimized: false)
!545 = !DISubroutineType(types: !546)
!546 = !{!514, !509, !538}
!547 = !{!548, !552, !606, !610, !611}
!548 = !DIImportedEntity(tag: DW_TAG_imported_module, scope: !549, entity: !550, file: !551, line: 58)
!549 = !DINamespace(name: "__gnu_debug", scope: null)
!550 = !DINamespace(name: "__debug", scope: !6)
!551 = !DIFile(filename: "/usr/bin/../lib/gcc/x86_64-linux-gnu/7.4.0/../../../../include/c++/7.4.0/debug/debug.h", directory: "/home/shihua/klee/examples/my_example")
!552 = !DIImportedEntity(tag: DW_TAG_imported_declaration, scope: !6, entity: !553, file: !554, line: 57)
!553 = distinct !DICompositeType(tag: DW_TAG_class_type, name: "exception_ptr", scope: !555, file: !554, line: 79, size: 64, elements: !556, identifier: "_ZTSNSt15__exception_ptr13exception_ptrE")
!554 = !DIFile(filename: "/usr/bin/../lib/gcc/x86_64-linux-gnu/7.4.0/../../../../include/c++/7.4.0/bits/exception_ptr.h", directory: "/home/shihua/klee/examples/my_example")
!555 = !DINamespace(name: "__exception_ptr", scope: !6)
!556 = !{!557, !558, !562, !565, !566, !571, !572, !576, !581, !585, !589, !592, !593, !596, !599}
!557 = !DIDerivedType(tag: DW_TAG_member, name: "_M_exception_object", scope: !553, file: !554, line: 81, baseType: !205, size: 64)
!558 = !DISubprogram(name: "exception_ptr", scope: !553, file: !554, line: 83, type: !559, isLocal: false, isDefinition: false, scopeLine: 83, flags: DIFlagExplicit | DIFlagPrototyped, isOptimized: false)
!559 = !DISubroutineType(types: !560)
!560 = !{null, !561, !205}
!561 = !DIDerivedType(tag: DW_TAG_pointer_type, baseType: !553, size: 64, flags: DIFlagArtificial | DIFlagObjectPointer)
!562 = !DISubprogram(name: "_M_addref", linkageName: "_ZNSt15__exception_ptr13exception_ptr9_M_addrefEv", scope: !553, file: !554, line: 85, type: !563, isLocal: false, isDefinition: false, scopeLine: 85, flags: DIFlagPrototyped, isOptimized: false)
!563 = !DISubroutineType(types: !564)
!564 = !{null, !561}
!565 = !DISubprogram(name: "_M_release", linkageName: "_ZNSt15__exception_ptr13exception_ptr10_M_releaseEv", scope: !553, file: !554, line: 86, type: !563, isLocal: false, isDefinition: false, scopeLine: 86, flags: DIFlagPrototyped, isOptimized: false)
!566 = !DISubprogram(name: "_M_get", linkageName: "_ZNKSt15__exception_ptr13exception_ptr6_M_getEv", scope: !553, file: !554, line: 88, type: !567, isLocal: false, isDefinition: false, scopeLine: 88, flags: DIFlagPrototyped, isOptimized: false)
!567 = !DISubroutineType(types: !568)
!568 = !{!205, !569}
!569 = !DIDerivedType(tag: DW_TAG_pointer_type, baseType: !570, size: 64, flags: DIFlagArtificial | DIFlagObjectPointer)
!570 = !DIDerivedType(tag: DW_TAG_const_type, baseType: !553)
!571 = !DISubprogram(name: "exception_ptr", scope: !553, file: !554, line: 96, type: !563, isLocal: false, isDefinition: false, scopeLine: 96, flags: DIFlagPublic | DIFlagPrototyped, isOptimized: false)
!572 = !DISubprogram(name: "exception_ptr", scope: !553, file: !554, line: 98, type: !573, isLocal: false, isDefinition: false, scopeLine: 98, flags: DIFlagPublic | DIFlagPrototyped, isOptimized: false)
!573 = !DISubroutineType(types: !574)
!574 = !{null, !561, !575}
!575 = !DIDerivedType(tag: DW_TAG_reference_type, baseType: !570, size: 64)
!576 = !DISubprogram(name: "exception_ptr", scope: !553, file: !554, line: 101, type: !577, isLocal: false, isDefinition: false, scopeLine: 101, flags: DIFlagPublic | DIFlagPrototyped, isOptimized: false)
!577 = !DISubroutineType(types: !578)
!578 = !{null, !561, !579}
!579 = !DIDerivedType(tag: DW_TAG_typedef, name: "nullptr_t", scope: !6, file: !80, line: 235, baseType: !580)
!580 = !DIBasicType(tag: DW_TAG_unspecified_type, name: "decltype(nullptr)")
!581 = !DISubprogram(name: "exception_ptr", scope: !553, file: !554, line: 105, type: !582, isLocal: false, isDefinition: false, scopeLine: 105, flags: DIFlagPublic | DIFlagPrototyped, isOptimized: false)
!582 = !DISubroutineType(types: !583)
!583 = !{null, !561, !584}
!584 = !DIDerivedType(tag: DW_TAG_rvalue_reference_type, baseType: !553, size: 64)
!585 = !DISubprogram(name: "operator=", linkageName: "_ZNSt15__exception_ptr13exception_ptraSERKS0_", scope: !553, file: !554, line: 118, type: !586, isLocal: false, isDefinition: false, scopeLine: 118, flags: DIFlagPublic | DIFlagPrototyped, isOptimized: false)
!586 = !DISubroutineType(types: !587)
!587 = !{!588, !561, !575}
!588 = !DIDerivedType(tag: DW_TAG_reference_type, baseType: !553, size: 64)
!589 = !DISubprogram(name: "operator=", linkageName: "_ZNSt15__exception_ptr13exception_ptraSEOS0_", scope: !553, file: !554, line: 122, type: !590, isLocal: false, isDefinition: false, scopeLine: 122, flags: DIFlagPublic | DIFlagPrototyped, isOptimized: false)
!590 = !DISubroutineType(types: !591)
!591 = !{!588, !561, !584}
!592 = !DISubprogram(name: "~exception_ptr", scope: !553, file: !554, line: 129, type: !563, isLocal: false, isDefinition: false, scopeLine: 129, flags: DIFlagPublic | DIFlagPrototyped, isOptimized: false)
!593 = !DISubprogram(name: "swap", linkageName: "_ZNSt15__exception_ptr13exception_ptr4swapERS0_", scope: !553, file: !554, line: 132, type: !594, isLocal: false, isDefinition: false, scopeLine: 132, flags: DIFlagPublic | DIFlagPrototyped, isOptimized: false)
!594 = !DISubroutineType(types: !595)
!595 = !{null, !561, !588}
!596 = !DISubprogram(name: "operator bool", linkageName: "_ZNKSt15__exception_ptr13exception_ptrcvbEv", scope: !553, file: !554, line: 144, type: !597, isLocal: false, isDefinition: false, scopeLine: 144, flags: DIFlagPublic | DIFlagExplicit | DIFlagPrototyped, isOptimized: false)
!597 = !DISubroutineType(types: !598)
!598 = !{!131, !569}
!599 = !DISubprogram(name: "__cxa_exception_type", linkageName: "_ZNKSt15__exception_ptr13exception_ptr20__cxa_exception_typeEv", scope: !553, file: !554, line: 153, type: !600, isLocal: false, isDefinition: false, scopeLine: 153, flags: DIFlagPublic | DIFlagPrototyped, isOptimized: false)
!600 = !DISubroutineType(types: !601)
!601 = !{!602, !569}
!602 = !DIDerivedType(tag: DW_TAG_pointer_type, baseType: !603, size: 64)
!603 = !DIDerivedType(tag: DW_TAG_const_type, baseType: !604)
!604 = !DICompositeType(tag: DW_TAG_class_type, name: "type_info", scope: !6, file: !605, line: 88, flags: DIFlagFwdDecl, identifier: "_ZTSSt9type_info")
!605 = !DIFile(filename: "/usr/bin/../lib/gcc/x86_64-linux-gnu/7.4.0/../../../../include/c++/7.4.0/typeinfo", directory: "/home/shihua/klee/examples/my_example")
!606 = !DIImportedEntity(tag: DW_TAG_imported_declaration, scope: !555, entity: !607, file: !554, line: 73)
!607 = !DISubprogram(name: "rethrow_exception", linkageName: "_ZSt17rethrow_exceptionNSt15__exception_ptr13exception_ptrE", scope: !6, file: !554, line: 69, type: !608, isLocal: false, isDefinition: false, flags: DIFlagPrototyped | DIFlagNoReturn, isOptimized: false)
!608 = !DISubroutineType(types: !609)
!609 = !{null, !553}
!610 = !DIImportedEntity(tag: DW_TAG_imported_declaration, scope: !28, entity: !79, file: !48, line: 44)
!611 = !DIImportedEntity(tag: DW_TAG_imported_declaration, scope: !28, entity: !480, file: !48, line: 45)
!612 = distinct !DICompileUnit(language: DW_LANG_C89, file: !613, producer: "clang version 6.0.0-1ubuntu2 (tags/RELEASE_600/final)", isOptimized: false, runtimeVersion: 0, emissionKind: FullDebug, enums: !7)
!613 = !DIFile(filename: "/home/shihua/klee/runtime/Intrinsic/klee_int.c", directory: "/home/shihua/klee/build/runtime/Intrinsic")
!614 = distinct !DICompileUnit(language: DW_LANG_C89, file: !615, producer: "clang version 6.0.0-1ubuntu2 (tags/RELEASE_600/final)", isOptimized: false, runtimeVersion: 0, emissionKind: FullDebug, enums: !7)
!615 = !DIFile(filename: "/home/shihua/klee/runtime/FreeStanding/memcpy.c", directory: "/home/shihua/klee/build/runtime/FreeStanding")
!616 = distinct !DICompileUnit(language: DW_LANG_C89, file: !617, producer: "clang version 6.0.0-1ubuntu2 (tags/RELEASE_600/final)", isOptimized: false, runtimeVersion: 0, emissionKind: FullDebug, enums: !7)
!617 = !DIFile(filename: "/home/shihua/klee/runtime/FreeStanding/memmove.c", directory: "/home/shihua/klee/build/runtime/FreeStanding")
!618 = !{i32 2, !"Dwarf Version", i32 4}
!619 = !{i32 2, !"Debug Info Version", i32 3}
!620 = !{i32 1, !"wchar_size", i32 4}
!621 = !{!"clang version 6.0.0-1ubuntu2 (tags/RELEASE_600/final)"}
!622 = distinct !DISubprogram(name: "main", scope: !1, file: !1, line: 12, type: !623, isLocal: false, isDefinition: true, scopeLine: 12, flags: DIFlagPrototyped, isOptimized: false, unit: !0, variables: !7)
!623 = !DISubroutineType(types: !624)
!624 = !{!10, !10, !625}
!625 = !DIDerivedType(tag: DW_TAG_pointer_type, baseType: !626, size: 64)
!626 = !DIDerivedType(tag: DW_TAG_pointer_type, baseType: !392, size: 64)
!627 = !DILocalVariable(name: "argc", arg: 1, scope: !622, file: !1, line: 12, type: !10)
!628 = !DILocation(line: 12, column: 14, scope: !622)
!629 = !DILocalVariable(name: "args", arg: 2, scope: !622, file: !1, line: 12, type: !625)
!630 = !DILocation(line: 12, column: 27, scope: !622)
!631 = !DILocalVariable(name: "a", scope: !622, file: !1, line: 13, type: !209)
!632 = !DILocation(line: 13, column: 20, scope: !622)
!633 = !DILocation(line: 14, column: 15, scope: !622)
!634 = !DILocation(line: 14, column: 5, scope: !622)
!635 = !DILocation(line: 15, column: 12, scope: !622)
!636 = !DILocation(line: 15, column: 3, scope: !622)
!637 = !DILocation(line: 16, column: 1, scope: !622)
!638 = distinct !DISubprogram(name: "vector", linkageName: "_ZNSt6vectorIiSaIiEEC2Ev", scope: !209, file: !16, line: 259, type: !213, isLocal: false, isDefinition: true, scopeLine: 263, flags: DIFlagPrototyped, isOptimized: false, unit: !0, declaration: !212, variables: !7)
!639 = !DILocalVariable(name: "this", arg: 1, scope: !638, type: !640, flags: DIFlagArtificial | DIFlagObjectPointer)
!640 = !DIDerivedType(tag: DW_TAG_pointer_type, baseType: !209, size: 64)
!641 = !DILocation(line: 0, scope: !638)
!642 = !DILocation(line: 263, column: 17, scope: !638)
!643 = !DILocation(line: 263, column: 9, scope: !638)
!644 = !DILocation(line: 263, column: 19, scope: !638)
!645 = distinct !DISubprogram(name: "push_back", linkageName: "_ZNSt6vectorIiSaIiEE9push_backEOi", scope: !209, file: !16, line: 953, type: !348, isLocal: false, isDefinition: true, scopeLine: 954, flags: DIFlagPrototyped, isOptimized: false, unit: !0, declaration: !347, variables: !7)
!646 = !DILocalVariable(name: "this", arg: 1, scope: !645, type: !640, flags: DIFlagArtificial | DIFlagObjectPointer)
!647 = !DILocation(line: 0, scope: !645)
!648 = !DILocalVariable(name: "__x", arg: 2, scope: !645, file: !16, line: 953, type: !350)
!649 = !DILocation(line: 953, column: 30, scope: !645)
!650 = !DILocation(line: 954, column: 32, scope: !645)
!651 = !DILocation(line: 954, column: 22, scope: !645)
!652 = !DILocation(line: 954, column: 9, scope: !645)
!653 = !DILocation(line: 954, column: 39, scope: !645)
!654 = distinct !DISubprogram(name: "at", linkageName: "_ZNSt6vectorIiSaIiEE2atEm", scope: !209, file: !16, line: 844, type: !311, isLocal: false, isDefinition: true, scopeLine: 845, flags: DIFlagPrototyped, isOptimized: false, unit: !0, declaration: !328, variables: !7)
!655 = !DILocalVariable(name: "this", arg: 1, scope: !654, type: !640, flags: DIFlagArtificial | DIFlagObjectPointer)
!656 = !DILocation(line: 0, scope: !654)
!657 = !DILocalVariable(name: "__n", arg: 2, scope: !654, file: !16, line: 844, type: !206)
!658 = !DILocation(line: 844, column: 20, scope: !654)
!659 = !DILocation(line: 846, column: 17, scope: !654)
!660 = !DILocation(line: 846, column: 2, scope: !654)
!661 = !DILocation(line: 847, column: 17, scope: !654)
!662 = !DILocation(line: 847, column: 9, scope: !654)
!663 = !DILocation(line: 847, column: 2, scope: !654)
!664 = distinct !DISubprogram(name: "~vector", linkageName: "_ZNSt6vectorIiSaIiEED2Ev", scope: !209, file: !16, line: 433, type: !213, isLocal: false, isDefinition: true, scopeLine: 434, flags: DIFlagPrototyped, isOptimized: false, unit: !0, declaration: !251, variables: !7)
!665 = !DILocalVariable(name: "this", arg: 1, scope: !664, type: !640, flags: DIFlagArtificial | DIFlagObjectPointer)
!666 = !DILocation(line: 0, scope: !664)
!667 = !DILocation(line: 434, column: 29, scope: !668)
!668 = distinct !DILexicalBlock(scope: !664, file: !16, line: 434, column: 7)
!669 = !DILocation(line: 434, column: 37, scope: !668)
!670 = !DILocation(line: 434, column: 53, scope: !668)
!671 = !DILocation(line: 434, column: 61, scope: !668)
!672 = !DILocation(line: 435, column: 9, scope: !668)
!673 = !DILocation(line: 434, column: 9, scope: !668)
!674 = !DILocation(line: 435, column: 33, scope: !668)
!675 = !DILocation(line: 435, column: 33, scope: !664)
!676 = distinct !DISubprogram(name: "_Vector_base", linkageName: "_ZNSt12_Vector_baseIiSaIiEEC2Ev", scope: !17, file: !16, line: 126, type: !170, isLocal: false, isDefinition: true, scopeLine: 127, flags: DIFlagPrototyped, isOptimized: false, unit: !0, declaration: !169, variables: !7)
!677 = !DILocalVariable(name: "this", arg: 1, scope: !676, type: !678, flags: DIFlagArtificial | DIFlagObjectPointer)
!678 = !DIDerivedType(tag: DW_TAG_pointer_type, baseType: !17, size: 64)
!679 = !DILocation(line: 0, scope: !676)
!680 = !DILocation(line: 127, column: 9, scope: !676)
!681 = !DILocation(line: 127, column: 21, scope: !676)
!682 = distinct !DISubprogram(name: "_Vector_impl", linkageName: "_ZNSt12_Vector_baseIiSaIiEE12_Vector_implC2Ev", scope: !20, file: !16, line: 88, type: !139, isLocal: false, isDefinition: true, scopeLine: 90, flags: DIFlagPrototyped, isOptimized: false, unit: !0, declaration: !138, variables: !7)
!683 = !DILocalVariable(name: "this", arg: 1, scope: !682, type: !684, flags: DIFlagArtificial | DIFlagObjectPointer)
!684 = !DIDerivedType(tag: DW_TAG_pointer_type, baseType: !20, size: 64)
!685 = !DILocation(line: 0, scope: !682)
!686 = !DILocation(line: 90, column: 2, scope: !682)
!687 = !DILocation(line: 89, column: 4, scope: !682)
!688 = !DILocation(line: 89, column: 22, scope: !682)
!689 = !DILocation(line: 89, column: 34, scope: !682)
!690 = !DILocation(line: 89, column: 47, scope: !682)
!691 = !DILocation(line: 90, column: 4, scope: !682)
!692 = distinct !DISubprogram(name: "allocator", linkageName: "_ZNSaIiEC2Ev", scope: !41, file: !42, line: 131, type: !93, isLocal: false, isDefinition: true, scopeLine: 131, flags: DIFlagPrototyped, isOptimized: false, unit: !0, declaration: !92, variables: !7)
!693 = !DILocalVariable(name: "this", arg: 1, scope: !692, type: !694, flags: DIFlagArtificial | DIFlagObjectPointer)
!694 = !DIDerivedType(tag: DW_TAG_pointer_type, baseType: !41, size: 64)
!695 = !DILocation(line: 0, scope: !692)
!696 = !DILocation(line: 131, column: 27, scope: !692)
!697 = !DILocation(line: 131, column: 7, scope: !692)
!698 = !DILocation(line: 131, column: 29, scope: !692)
!699 = distinct !DISubprogram(name: "new_allocator", linkageName: "_ZN9__gnu_cxx13new_allocatorIiEC2Ev", scope: !47, file: !48, line: 79, type: !51, isLocal: false, isDefinition: true, scopeLine: 79, flags: DIFlagPrototyped, isOptimized: false, unit: !0, declaration: !50, variables: !7)
!700 = !DILocalVariable(name: "this", arg: 1, scope: !699, type: !701, flags: DIFlagArtificial | DIFlagObjectPointer)
!701 = !DIDerivedType(tag: DW_TAG_pointer_type, baseType: !47, size: 64)
!702 = !DILocation(line: 0, scope: !699)
!703 = !DILocation(line: 79, column: 47, scope: !699)
!704 = distinct !DISubprogram(name: "_Destroy<int *, int>", linkageName: "_ZSt8_DestroyIPiiEvT_S1_RSaIT0_E", scope: !6, file: !705, line: 203, type: !706, isLocal: false, isDefinition: true, scopeLine: 205, flags: DIFlagPrototyped, isOptimized: false, unit: !0, templateParams: !708, variables: !7)
!705 = !DIFile(filename: "/usr/bin/../lib/gcc/x86_64-linux-gnu/7.4.0/../../../../include/c++/7.4.0/bits/stl_construct.h", directory: "/home/shihua/klee/examples/my_example")
!706 = !DISubroutineType(types: !707)
!707 = !{null, !38, !38, !127}
!708 = !{!709, !91}
!709 = !DITemplateTypeParameter(name: "_ForwardIterator", type: !38)
!710 = !DILocalVariable(name: "__first", arg: 1, scope: !704, file: !705, line: 203, type: !38)
!711 = !DILocation(line: 203, column: 31, scope: !704)
!712 = !DILocalVariable(name: "__last", arg: 2, scope: !704, file: !705, line: 203, type: !38)
!713 = !DILocation(line: 203, column: 57, scope: !704)
!714 = !DILocalVariable(arg: 3, scope: !704, file: !705, line: 204, type: !127)
!715 = !DILocation(line: 204, column: 22, scope: !704)
!716 = !DILocation(line: 206, column: 16, scope: !704)
!717 = !DILocation(line: 206, column: 25, scope: !704)
!718 = !DILocation(line: 206, column: 7, scope: !704)
!719 = !DILocation(line: 207, column: 5, scope: !704)
!720 = distinct !DISubprogram(name: "_M_get_Tp_allocator", linkageName: "_ZNSt12_Vector_baseIiSaIiEE19_M_get_Tp_allocatorEv", scope: !17, file: !16, line: 115, type: !156, isLocal: false, isDefinition: true, scopeLine: 116, flags: DIFlagPrototyped, isOptimized: false, unit: !0, declaration: !155, variables: !7)
!721 = !DILocalVariable(name: "this", arg: 1, scope: !720, type: !678, flags: DIFlagArtificial | DIFlagObjectPointer)
!722 = !DILocation(line: 0, scope: !720)
!723 = !DILocation(line: 116, column: 53, scope: !720)
!724 = !DILocation(line: 116, column: 16, scope: !720)
!725 = !DILocation(line: 116, column: 9, scope: !720)
!726 = distinct !DISubprogram(name: "~_Vector_base", linkageName: "_ZNSt12_Vector_baseIiSaIiEED2Ev", scope: !17, file: !16, line: 161, type: !170, isLocal: false, isDefinition: true, scopeLine: 162, flags: DIFlagPrototyped, isOptimized: false, unit: !0, declaration: !193, variables: !7)
!727 = !DILocalVariable(name: "this", arg: 1, scope: !726, type: !678, flags: DIFlagArtificial | DIFlagObjectPointer)
!728 = !DILocation(line: 0, scope: !726)
!729 = !DILocation(line: 162, column: 29, scope: !730)
!730 = distinct !DILexicalBlock(scope: !726, file: !16, line: 162, column: 7)
!731 = !DILocation(line: 162, column: 37, scope: !730)
!732 = !DILocation(line: 162, column: 53, scope: !730)
!733 = !DILocation(line: 162, column: 61, scope: !730)
!734 = !DILocation(line: 163, column: 17, scope: !730)
!735 = !DILocation(line: 163, column: 25, scope: !730)
!736 = !DILocation(line: 163, column: 9, scope: !730)
!737 = !DILocation(line: 162, column: 9, scope: !730)
!738 = !DILocation(line: 163, column: 36, scope: !730)
!739 = !DILocation(line: 163, column: 36, scope: !726)
!740 = distinct !DISubprogram(name: "_Destroy<int *>", linkageName: "_ZSt8_DestroyIPiEvT_S1_", scope: !6, file: !705, line: 127, type: !741, isLocal: false, isDefinition: true, scopeLine: 128, flags: DIFlagPrototyped, isOptimized: false, unit: !0, templateParams: !743, variables: !7)
!741 = !DISubroutineType(types: !742)
!742 = !{null, !38, !38}
!743 = !{!709}
!744 = !DILocalVariable(name: "__first", arg: 1, scope: !740, file: !705, line: 127, type: !38)
!745 = !DILocation(line: 127, column: 31, scope: !740)
!746 = !DILocalVariable(name: "__last", arg: 2, scope: !740, file: !705, line: 127, type: !38)
!747 = !DILocation(line: 127, column: 57, scope: !740)
!748 = !DILocation(line: 137, column: 12, scope: !740)
!749 = !DILocation(line: 137, column: 21, scope: !740)
!750 = !DILocation(line: 136, column: 7, scope: !740)
!751 = !DILocation(line: 138, column: 5, scope: !740)
!752 = distinct !DISubprogram(name: "__destroy<int *>", linkageName: "_ZNSt12_Destroy_auxILb1EE9__destroyIPiEEvT_S3_", scope: !753, file: !705, line: 117, type: !741, isLocal: false, isDefinition: true, scopeLine: 117, flags: DIFlagPrototyped, isOptimized: false, unit: !0, templateParams: !743, declaration: !756, variables: !7)
!753 = distinct !DICompositeType(tag: DW_TAG_structure_type, name: "_Destroy_aux<true>", scope: !6, file: !705, line: 113, size: 8, elements: !7, templateParams: !754, identifier: "_ZTSSt12_Destroy_auxILb1EE")
!754 = !{!755}
!755 = !DITemplateValueParameter(type: !131, value: i8 1)
!756 = !DISubprogram(name: "__destroy<int *>", linkageName: "_ZNSt12_Destroy_auxILb1EE9__destroyIPiEEvT_S3_", scope: !753, file: !705, line: 117, type: !741, isLocal: false, isDefinition: false, scopeLine: 117, flags: DIFlagPrototyped | DIFlagStaticMember, isOptimized: false, templateParams: !743)
!757 = !DILocalVariable(arg: 1, scope: !752, file: !705, line: 117, type: !38)
!758 = !DILocation(line: 117, column: 35, scope: !752)
!759 = !DILocalVariable(arg: 2, scope: !752, file: !705, line: 117, type: !38)
!760 = !DILocation(line: 117, column: 53, scope: !752)
!761 = !DILocation(line: 117, column: 57, scope: !752)
!762 = distinct !DISubprogram(name: "_M_deallocate", linkageName: "_ZNSt12_Vector_baseIiSaIiEE13_M_deallocateEPim", scope: !17, file: !16, line: 176, type: !198, isLocal: false, isDefinition: true, scopeLine: 177, flags: DIFlagPrototyped, isOptimized: false, unit: !0, declaration: !197, variables: !7)
!763 = !DILocalVariable(name: "this", arg: 1, scope: !762, type: !678, flags: DIFlagArtificial | DIFlagObjectPointer)
!764 = !DILocation(line: 0, scope: !762)
!765 = !DILocalVariable(name: "__p", arg: 2, scope: !762, file: !16, line: 176, type: !24)
!766 = !DILocation(line: 176, column: 29, scope: !762)
!767 = !DILocalVariable(name: "__n", arg: 3, scope: !762, file: !16, line: 176, type: !79)
!768 = !DILocation(line: 176, column: 41, scope: !762)
!769 = !DILocation(line: 179, column: 6, scope: !770)
!770 = distinct !DILexicalBlock(scope: !762, file: !16, line: 179, column: 6)
!771 = !DILocation(line: 179, column: 6, scope: !762)
!772 = !DILocation(line: 180, column: 20, scope: !770)
!773 = !DILocation(line: 180, column: 29, scope: !770)
!774 = !DILocation(line: 180, column: 34, scope: !770)
!775 = !DILocation(line: 180, column: 4, scope: !770)
!776 = !DILocation(line: 181, column: 7, scope: !762)
!777 = distinct !DISubprogram(name: "~_Vector_impl", linkageName: "_ZNSt12_Vector_baseIiSaIiEE12_Vector_implD2Ev", scope: !20, file: !16, line: 81, type: !139, isLocal: false, isDefinition: true, scopeLine: 81, flags: DIFlagArtificial | DIFlagPrototyped, isOptimized: false, unit: !0, declaration: !778, variables: !7)
!778 = !DISubprogram(name: "~_Vector_impl", scope: !20, type: !139, isLocal: false, isDefinition: false, flags: DIFlagArtificial | DIFlagPrototyped, isOptimized: false)
!779 = !DILocalVariable(name: "this", arg: 1, scope: !777, type: !684, flags: DIFlagArtificial | DIFlagObjectPointer)
!780 = !DILocation(line: 0, scope: !777)
!781 = !DILocation(line: 81, column: 14, scope: !782)
!782 = distinct !DILexicalBlock(scope: !777, file: !16, line: 81, column: 14)
!783 = !DILocation(line: 81, column: 14, scope: !777)
!784 = distinct !DISubprogram(name: "deallocate", linkageName: "_ZNSt16allocator_traitsISaIiEE10deallocateERS0_Pim", scope: !31, file: !32, line: 461, type: !108, isLocal: false, isDefinition: true, scopeLine: 462, flags: DIFlagPrototyped, isOptimized: false, unit: !0, declaration: !107, variables: !7)
!785 = !DILocalVariable(name: "__a", arg: 1, scope: !784, file: !32, line: 461, type: !39)
!786 = !DILocation(line: 461, column: 34, scope: !784)
!787 = !DILocalVariable(name: "__p", arg: 2, scope: !784, file: !32, line: 461, type: !37)
!788 = !DILocation(line: 461, column: 47, scope: !784)
!789 = !DILocalVariable(name: "__n", arg: 3, scope: !784, file: !32, line: 461, type: !102)
!790 = !DILocation(line: 461, column: 62, scope: !784)
!791 = !DILocation(line: 462, column: 9, scope: !784)
!792 = !DILocation(line: 462, column: 24, scope: !784)
!793 = !DILocation(line: 462, column: 29, scope: !784)
!794 = !DILocation(line: 462, column: 13, scope: !784)
!795 = !DILocation(line: 462, column: 35, scope: !784)
!796 = distinct !DISubprogram(name: "deallocate", linkageName: "_ZN9__gnu_cxx13new_allocatorIiE10deallocateEPim", scope: !47, file: !48, line: 116, type: !85, isLocal: false, isDefinition: true, scopeLine: 117, flags: DIFlagPrototyped, isOptimized: false, unit: !0, declaration: !84, variables: !7)
!797 = !DILocalVariable(name: "this", arg: 1, scope: !796, type: !701, flags: DIFlagArtificial | DIFlagObjectPointer)
!798 = !DILocation(line: 0, scope: !796)
!799 = !DILocalVariable(name: "__p", arg: 2, scope: !796, file: !48, line: 116, type: !63)
!800 = !DILocation(line: 116, column: 26, scope: !796)
!801 = !DILocalVariable(arg: 3, scope: !796, file: !48, line: 116, type: !78)
!802 = !DILocation(line: 116, column: 40, scope: !796)
!803 = !DILocation(line: 125, column: 20, scope: !796)
!804 = !DILocation(line: 125, column: 2, scope: !796)
!805 = !DILocation(line: 126, column: 7, scope: !796)
!806 = distinct !DISubprogram(name: "~allocator", linkageName: "_ZNSaIiED2Ev", scope: !41, file: !42, line: 139, type: !93, isLocal: false, isDefinition: true, scopeLine: 139, flags: DIFlagPrototyped, isOptimized: false, unit: !0, declaration: !101, variables: !7)
!807 = !DILocalVariable(name: "this", arg: 1, scope: !806, type: !694, flags: DIFlagArtificial | DIFlagObjectPointer)
!808 = !DILocation(line: 0, scope: !806)
!809 = !DILocation(line: 139, column: 30, scope: !810)
!810 = distinct !DILexicalBlock(scope: !806, file: !42, line: 139, column: 28)
!811 = !DILocation(line: 139, column: 30, scope: !806)
!812 = distinct !DISubprogram(name: "~new_allocator", linkageName: "_ZN9__gnu_cxx13new_allocatorIiED2Ev", scope: !47, file: !48, line: 86, type: !51, isLocal: false, isDefinition: true, scopeLine: 86, flags: DIFlagPrototyped, isOptimized: false, unit: !0, declaration: !59, variables: !7)
!813 = !DILocalVariable(name: "this", arg: 1, scope: !812, type: !701, flags: DIFlagArtificial | DIFlagObjectPointer)
!814 = !DILocation(line: 0, scope: !812)
!815 = !DILocation(line: 86, column: 48, scope: !812)
!816 = distinct !DISubprogram(name: "emplace_back<int>", linkageName: "_ZNSt6vectorIiSaIiEE12emplace_backIJiEEEvDpOT_", scope: !209, file: !817, line: 96, type: !818, isLocal: false, isDefinition: true, scopeLine: 97, flags: DIFlagPrototyped, isOptimized: false, unit: !0, templateParams: !821, declaration: !820, variables: !7)
!817 = !DIFile(filename: "/usr/bin/../lib/gcc/x86_64-linux-gnu/7.4.0/../../../../include/c++/7.4.0/bits/vector.tcc", directory: "/home/shihua/klee/examples/my_example")
!818 = !DISubroutineType(types: !819)
!819 = !{null, !215, !520}
!820 = !DISubprogram(name: "emplace_back<int>", linkageName: "_ZNSt6vectorIiSaIiEE12emplace_backIJiEEEvDpOT_", scope: !209, file: !16, line: 962, type: !818, isLocal: false, isDefinition: false, scopeLine: 962, flags: DIFlagPublic | DIFlagPrototyped, isOptimized: false, templateParams: !821)
!821 = !{!822}
!822 = !DITemplateValueParameter(tag: DW_TAG_GNU_template_parameter_pack, name: "_Args", value: !823)
!823 = !{!9}
!824 = !DILocalVariable(name: "this", arg: 1, scope: !816, type: !640, flags: DIFlagArtificial | DIFlagObjectPointer)
!825 = !DILocation(line: 0, scope: !816)
!826 = !DILocalVariable(name: "__args", arg: 2, scope: !816, file: !16, line: 962, type: !520)
!827 = !DILocation(line: 962, column: 26, scope: !816)
!828 = !DILocation(line: 98, column: 12, scope: !829)
!829 = distinct !DILexicalBlock(scope: !816, file: !817, line: 98, column: 6)
!830 = !DILocation(line: 98, column: 20, scope: !829)
!831 = !DILocation(line: 98, column: 39, scope: !829)
!832 = !DILocation(line: 98, column: 47, scope: !829)
!833 = !DILocation(line: 98, column: 30, scope: !829)
!834 = !DILocation(line: 98, column: 6, scope: !816)
!835 = !DILocation(line: 100, column: 37, scope: !836)
!836 = distinct !DILexicalBlock(scope: !829, file: !817, line: 99, column: 4)
!837 = !DILocation(line: 100, column: 31, scope: !836)
!838 = !DILocation(line: 100, column: 52, scope: !836)
!839 = !DILocation(line: 100, column: 60, scope: !836)
!840 = !DILocation(line: 101, column: 30, scope: !836)
!841 = !DILocation(line: 101, column: 10, scope: !836)
!842 = !DILocation(line: 100, column: 6, scope: !836)
!843 = !DILocation(line: 102, column: 14, scope: !836)
!844 = !DILocation(line: 102, column: 22, scope: !836)
!845 = !DILocation(line: 102, column: 6, scope: !836)
!846 = !DILocation(line: 103, column: 4, scope: !836)
!847 = !DILocation(line: 105, column: 22, scope: !829)
!848 = !DILocation(line: 105, column: 49, scope: !829)
!849 = !DILocation(line: 105, column: 29, scope: !829)
!850 = !DILocation(line: 105, column: 4, scope: !829)
!851 = !DILocation(line: 109, column: 7, scope: !816)
!852 = distinct !DISubprogram(name: "move<int &>", linkageName: "_ZSt4moveIRiEONSt16remove_referenceIT_E4typeEOS2_", scope: !6, file: !853, line: 98, type: !854, isLocal: false, isDefinition: true, scopeLine: 99, flags: DIFlagPrototyped, isOptimized: false, unit: !0, templateParams: !859, variables: !7)
!853 = !DIFile(filename: "/usr/bin/../lib/gcc/x86_64-linux-gnu/7.4.0/../../../../include/c++/7.4.0/bits/move.h", directory: "/home/shihua/klee/examples/my_example")
!854 = !DISubroutineType(types: !855)
!855 = !{!856, !66}
!856 = !DIDerivedType(tag: DW_TAG_rvalue_reference_type, baseType: !857, size: 64)
!857 = !DIDerivedType(tag: DW_TAG_typedef, name: "type", scope: !858, file: !407, line: 1633, baseType: !10)
!858 = distinct !DICompositeType(tag: DW_TAG_structure_type, name: "remove_reference<int &>", scope: !6, file: !407, line: 1632, size: 8, elements: !7, templateParams: !859, identifier: "_ZTSSt16remove_referenceIRiE")
!859 = !{!860}
!860 = !DITemplateTypeParameter(name: "_Tp", type: !66)
!861 = !DILocalVariable(name: "__t", arg: 1, scope: !852, file: !853, line: 98, type: !66)
!862 = !DILocation(line: 98, column: 16, scope: !852)
!863 = !DILocation(line: 99, column: 71, scope: !852)
!864 = !DILocation(line: 99, column: 7, scope: !852)
!865 = distinct !DISubprogram(name: "construct<int, int>", linkageName: "_ZNSt16allocator_traitsISaIiEE9constructIiJiEEEvRS0_PT_DpOT0_", scope: !31, file: !32, line: 474, type: !866, isLocal: false, isDefinition: true, scopeLine: 475, flags: DIFlagPrototyped, isOptimized: false, unit: !0, templateParams: !869, declaration: !868, variables: !7)
!866 = !DISubroutineType(types: !867)
!867 = !{null, !39, !38, !520}
!868 = !DISubprogram(name: "construct<int, int>", linkageName: "_ZNSt16allocator_traitsISaIiEE9constructIiJiEEEvRS0_PT_DpOT0_", scope: !31, file: !32, line: 474, type: !866, isLocal: false, isDefinition: false, scopeLine: 474, flags: DIFlagPrototyped | DIFlagStaticMember, isOptimized: false, templateParams: !869)
!869 = !{!870, !822}
!870 = !DITemplateTypeParameter(name: "_Up", type: !10)
!871 = !DILocalVariable(name: "__a", arg: 1, scope: !865, file: !32, line: 474, type: !39)
!872 = !DILocation(line: 474, column: 28, scope: !865)
!873 = !DILocalVariable(name: "__p", arg: 2, scope: !865, file: !32, line: 474, type: !38)
!874 = !DILocation(line: 474, column: 38, scope: !865)
!875 = !DILocalVariable(name: "__args", arg: 3, scope: !865, file: !32, line: 474, type: !520)
!876 = !DILocation(line: 474, column: 54, scope: !865)
!877 = !DILocation(line: 475, column: 4, scope: !865)
!878 = !DILocation(line: 475, column: 18, scope: !865)
!879 = !DILocation(line: 475, column: 43, scope: !865)
!880 = !DILocation(line: 475, column: 23, scope: !865)
!881 = !DILocation(line: 475, column: 8, scope: !865)
!882 = !DILocation(line: 475, column: 56, scope: !865)
!883 = distinct !DISubprogram(name: "forward<int>", linkageName: "_ZSt7forwardIiEOT_RNSt16remove_referenceIS0_E4typeE", scope: !6, file: !853, line: 73, type: !884, isLocal: false, isDefinition: true, scopeLine: 74, flags: DIFlagPrototyped, isOptimized: false, unit: !0, templateParams: !90, variables: !7)
!884 = !DISubroutineType(types: !885)
!885 = !{!520, !886}
!886 = !DIDerivedType(tag: DW_TAG_reference_type, baseType: !887, size: 64)
!887 = !DIDerivedType(tag: DW_TAG_typedef, name: "type", scope: !888, file: !407, line: 1629, baseType: !10)
!888 = distinct !DICompositeType(tag: DW_TAG_structure_type, name: "remove_reference<int>", scope: !6, file: !407, line: 1628, size: 8, elements: !7, templateParams: !90, identifier: "_ZTSSt16remove_referenceIiE")
!889 = !DILocalVariable(name: "__t", arg: 1, scope: !883, file: !853, line: 73, type: !886)
!890 = !DILocation(line: 73, column: 56, scope: !883)
!891 = !DILocation(line: 74, column: 33, scope: !883)
!892 = !DILocation(line: 74, column: 7, scope: !883)
!893 = distinct !DISubprogram(name: "_M_realloc_insert<int>", linkageName: "_ZNSt6vectorIiSaIiEE17_M_realloc_insertIJiEEEvN9__gnu_cxx17__normal_iteratorIPiS1_EEDpOT_", scope: !209, file: !817, line: 395, type: !894, isLocal: false, isDefinition: true, scopeLine: 402, flags: DIFlagPrototyped, isOptimized: false, unit: !0, templateParams: !821, declaration: !896, variables: !7)
!894 = !DISubroutineType(types: !895)
!895 = !{null, !215, !208, !520}
!896 = !DISubprogram(name: "_M_realloc_insert<int>", linkageName: "_ZNSt6vectorIiSaIiEE17_M_realloc_insertIJiEEEvN9__gnu_cxx17__normal_iteratorIPiS1_EEDpOT_", scope: !209, file: !16, line: 1483, type: !894, isLocal: false, isDefinition: false, scopeLine: 1483, flags: DIFlagProtected | DIFlagPrototyped, isOptimized: false, templateParams: !821)
!897 = !DILocalVariable(name: "this", arg: 1, scope: !893, type: !640, flags: DIFlagArtificial | DIFlagObjectPointer)
!898 = !DILocation(line: 0, scope: !893)
!899 = !DILocalVariable(name: "__position", arg: 2, scope: !893, file: !16, line: 1483, type: !208)
!900 = !DILocation(line: 1483, column: 29, scope: !893)
!901 = !DILocalVariable(name: "__args", arg: 3, scope: !893, file: !16, line: 1483, type: !520)
!902 = !DILocation(line: 1483, column: 52, scope: !893)
!903 = !DILocalVariable(name: "__len", scope: !893, file: !817, line: 403, type: !904)
!904 = !DIDerivedType(tag: DW_TAG_const_type, baseType: !206)
!905 = !DILocation(line: 403, column: 23, scope: !893)
!906 = !DILocation(line: 404, column: 2, scope: !893)
!907 = !DILocalVariable(name: "__elems_before", scope: !893, file: !817, line: 405, type: !904)
!908 = !DILocation(line: 405, column: 23, scope: !893)
!909 = !DILocation(line: 405, column: 53, scope: !893)
!910 = !DILocation(line: 405, column: 51, scope: !893)
!911 = !DILocalVariable(name: "__new_start", scope: !893, file: !817, line: 406, type: !396)
!912 = !DILocation(line: 406, column: 15, scope: !893)
!913 = !DILocation(line: 406, column: 33, scope: !893)
!914 = !DILocation(line: 406, column: 45, scope: !893)
!915 = !DILocalVariable(name: "__new_finish", scope: !893, file: !817, line: 407, type: !396)
!916 = !DILocation(line: 407, column: 15, scope: !893)
!917 = !DILocation(line: 407, column: 28, scope: !893)
!918 = !DILocation(line: 415, column: 35, scope: !919)
!919 = distinct !DILexicalBlock(scope: !893, file: !817, line: 409, column: 2)
!920 = !DILocation(line: 415, column: 29, scope: !919)
!921 = !DILocation(line: 416, column: 8, scope: !919)
!922 = !DILocation(line: 416, column: 22, scope: !919)
!923 = !DILocation(line: 416, column: 20, scope: !919)
!924 = !DILocation(line: 418, column: 28, scope: !919)
!925 = !DILocation(line: 418, column: 8, scope: !919)
!926 = !DILocation(line: 415, column: 4, scope: !919)
!927 = !DILocation(line: 422, column: 17, scope: !919)
!928 = !DILocation(line: 426, column: 13, scope: !919)
!929 = !DILocation(line: 426, column: 21, scope: !919)
!930 = !DILocation(line: 426, column: 42, scope: !919)
!931 = !DILocation(line: 427, column: 7, scope: !919)
!932 = !DILocation(line: 427, column: 20, scope: !919)
!933 = !DILocation(line: 425, column: 8, scope: !919)
!934 = !DILocation(line: 425, column: 6, scope: !919)
!935 = !DILocation(line: 429, column: 4, scope: !919)
!936 = !DILocation(line: 433, column: 18, scope: !919)
!937 = !DILocation(line: 433, column: 32, scope: !919)
!938 = !DILocation(line: 433, column: 40, scope: !919)
!939 = !DILocation(line: 434, column: 7, scope: !919)
!940 = !DILocation(line: 434, column: 21, scope: !919)
!941 = !DILocation(line: 432, column: 8, scope: !919)
!942 = !DILocation(line: 432, column: 6, scope: !919)
!943 = !DILocation(line: 446, column: 27, scope: !893)
!944 = !DILocation(line: 446, column: 35, scope: !893)
!945 = !DILocation(line: 446, column: 51, scope: !893)
!946 = !DILocation(line: 446, column: 59, scope: !893)
!947 = !DILocation(line: 447, column: 7, scope: !893)
!948 = !DILocation(line: 446, column: 7, scope: !893)
!949 = !DILocation(line: 448, column: 7, scope: !893)
!950 = !DILocation(line: 448, column: 27, scope: !893)
!951 = !DILocation(line: 448, column: 35, scope: !893)
!952 = !DILocation(line: 449, column: 13, scope: !893)
!953 = !DILocation(line: 449, column: 21, scope: !893)
!954 = !DILocation(line: 450, column: 15, scope: !893)
!955 = !DILocation(line: 450, column: 23, scope: !893)
!956 = !DILocation(line: 450, column: 7, scope: !893)
!957 = !DILocation(line: 451, column: 32, scope: !893)
!958 = !DILocation(line: 451, column: 13, scope: !893)
!959 = !DILocation(line: 451, column: 21, scope: !893)
!960 = !DILocation(line: 451, column: 30, scope: !893)
!961 = !DILocation(line: 452, column: 33, scope: !893)
!962 = !DILocation(line: 452, column: 13, scope: !893)
!963 = !DILocation(line: 452, column: 21, scope: !893)
!964 = !DILocation(line: 452, column: 31, scope: !893)
!965 = !DILocation(line: 453, column: 41, scope: !893)
!966 = !DILocation(line: 453, column: 55, scope: !893)
!967 = !DILocation(line: 453, column: 53, scope: !893)
!968 = !DILocation(line: 453, column: 13, scope: !893)
!969 = !DILocation(line: 453, column: 21, scope: !893)
!970 = !DILocation(line: 453, column: 39, scope: !893)
!971 = !DILocation(line: 454, column: 5, scope: !893)
!972 = !DILocation(line: 454, column: 5, scope: !919)
!973 = !DILocation(line: 435, column: 2, scope: !919)
!974 = !DILocation(line: 438, column: 9, scope: !975)
!975 = distinct !DILexicalBlock(scope: !976, file: !817, line: 438, column: 8)
!976 = distinct !DILexicalBlock(scope: !893, file: !817, line: 437, column: 2)
!977 = !DILocation(line: 438, column: 8, scope: !976)
!978 = !DILocation(line: 439, column: 35, scope: !975)
!979 = !DILocation(line: 439, column: 29, scope: !975)
!980 = !DILocation(line: 440, column: 8, scope: !975)
!981 = !DILocation(line: 440, column: 22, scope: !975)
!982 = !DILocation(line: 440, column: 20, scope: !975)
!983 = !DILocation(line: 439, column: 6, scope: !975)
!984 = !DILocation(line: 454, column: 5, scope: !975)
!985 = !DILocation(line: 445, column: 2, scope: !976)
!986 = !DILocation(line: 442, column: 20, scope: !975)
!987 = !DILocation(line: 442, column: 33, scope: !975)
!988 = !DILocation(line: 442, column: 47, scope: !975)
!989 = !DILocation(line: 442, column: 6, scope: !975)
!990 = !DILocation(line: 443, column: 4, scope: !976)
!991 = !DILocation(line: 443, column: 18, scope: !976)
!992 = !DILocation(line: 443, column: 31, scope: !976)
!993 = !DILocation(line: 444, column: 4, scope: !976)
!994 = distinct !DISubprogram(name: "end", linkageName: "_ZNSt6vectorIiSaIiEE3endEv", scope: !209, file: !16, line: 581, type: !269, isLocal: false, isDefinition: true, scopeLine: 582, flags: DIFlagPrototyped, isOptimized: false, unit: !0, declaration: !278, variables: !7)
!995 = !DILocalVariable(name: "this", arg: 1, scope: !994, type: !640, flags: DIFlagArtificial | DIFlagObjectPointer)
!996 = !DILocation(line: 0, scope: !994)
!997 = !DILocation(line: 582, column: 31, scope: !994)
!998 = !DILocation(line: 582, column: 39, scope: !994)
!999 = !DILocation(line: 582, column: 16, scope: !994)
!1000 = !DILocation(line: 582, column: 9, scope: !994)
!1001 = distinct !DISubprogram(name: "construct<int, int>", linkageName: "_ZN9__gnu_cxx13new_allocatorIiE9constructIiJiEEEvPT_DpOT0_", scope: !47, file: !48, line: 135, type: !1002, isLocal: false, isDefinition: true, scopeLine: 136, flags: DIFlagPrototyped, isOptimized: false, unit: !0, templateParams: !869, declaration: !1004, variables: !7)
!1002 = !DISubroutineType(types: !1003)
!1003 = !{null, !53, !38, !520}
!1004 = !DISubprogram(name: "construct<int, int>", linkageName: "_ZN9__gnu_cxx13new_allocatorIiE9constructIiJiEEEvPT_DpOT0_", scope: !47, file: !48, line: 135, type: !1002, isLocal: false, isDefinition: false, scopeLine: 135, flags: DIFlagPublic | DIFlagPrototyped, isOptimized: false, templateParams: !869)
!1005 = !DILocalVariable(name: "this", arg: 1, scope: !1001, type: !701, flags: DIFlagArtificial | DIFlagObjectPointer)
!1006 = !DILocation(line: 0, scope: !1001)
!1007 = !DILocalVariable(name: "__p", arg: 2, scope: !1001, file: !48, line: 135, type: !38)
!1008 = !DILocation(line: 135, column: 17, scope: !1001)
!1009 = !DILocalVariable(name: "__args", arg: 3, scope: !1001, file: !48, line: 135, type: !520)
!1010 = !DILocation(line: 135, column: 33, scope: !1001)
!1011 = !DILocation(line: 136, column: 18, scope: !1001)
!1012 = !DILocation(line: 136, column: 4, scope: !1001)
!1013 = !DILocation(line: 136, column: 47, scope: !1001)
!1014 = !DILocation(line: 136, column: 27, scope: !1001)
!1015 = !DILocation(line: 136, column: 60, scope: !1001)
!1016 = distinct !DISubprogram(name: "_M_check_len", linkageName: "_ZNKSt6vectorIiSaIiEE12_M_check_lenEmPKc", scope: !209, file: !16, line: 1502, type: !387, isLocal: false, isDefinition: true, scopeLine: 1503, flags: DIFlagPrototyped, isOptimized: false, unit: !0, declaration: !386, variables: !7)
!1017 = !DILocalVariable(name: "this", arg: 1, scope: !1016, type: !1018, flags: DIFlagArtificial | DIFlagObjectPointer)
!1018 = !DIDerivedType(tag: DW_TAG_pointer_type, baseType: !235, size: 64)
!1019 = !DILocation(line: 0, scope: !1016)
!1020 = !DILocalVariable(name: "__n", arg: 2, scope: !1016, file: !16, line: 1502, type: !206)
!1021 = !DILocation(line: 1502, column: 30, scope: !1016)
!1022 = !DILocalVariable(name: "__s", arg: 3, scope: !1016, file: !16, line: 1502, type: !390)
!1023 = !DILocation(line: 1502, column: 47, scope: !1016)
!1024 = !DILocation(line: 1504, column: 6, scope: !1025)
!1025 = distinct !DILexicalBlock(scope: !1016, file: !16, line: 1504, column: 6)
!1026 = !DILocation(line: 1504, column: 19, scope: !1025)
!1027 = !DILocation(line: 1504, column: 17, scope: !1025)
!1028 = !DILocation(line: 1504, column: 28, scope: !1025)
!1029 = !DILocation(line: 1504, column: 26, scope: !1025)
!1030 = !DILocation(line: 1504, column: 6, scope: !1016)
!1031 = !DILocation(line: 1505, column: 25, scope: !1025)
!1032 = !DILocation(line: 1505, column: 4, scope: !1025)
!1033 = !DILocalVariable(name: "__len", scope: !1016, file: !16, line: 1507, type: !904)
!1034 = !DILocation(line: 1507, column: 18, scope: !1016)
!1035 = !DILocation(line: 1507, column: 26, scope: !1016)
!1036 = !DILocation(line: 1507, column: 44, scope: !1016)
!1037 = !DILocation(line: 1507, column: 35, scope: !1016)
!1038 = !DILocation(line: 1507, column: 33, scope: !1016)
!1039 = !DILocation(line: 1508, column: 10, scope: !1016)
!1040 = !DILocation(line: 1508, column: 18, scope: !1016)
!1041 = !DILocation(line: 1508, column: 16, scope: !1016)
!1042 = !DILocation(line: 1508, column: 25, scope: !1016)
!1043 = !DILocation(line: 1508, column: 28, scope: !1016)
!1044 = !DILocation(line: 1508, column: 36, scope: !1016)
!1045 = !DILocation(line: 1508, column: 34, scope: !1016)
!1046 = !DILocation(line: 1508, column: 9, scope: !1016)
!1047 = !DILocation(line: 1508, column: 50, scope: !1016)
!1048 = !DILocation(line: 1508, column: 63, scope: !1016)
!1049 = !DILocation(line: 1508, column: 2, scope: !1016)
!1050 = distinct !DISubprogram(name: "operator-<int *, std::vector<int, std::allocator<int> > >", linkageName: "_ZN9__gnu_cxxmiIPiSt6vectorIiSaIiEEEENS_17__normal_iteratorIT_T0_E15difference_typeERKS8_SB_", scope: !28, file: !276, line: 965, type: !1051, isLocal: false, isDefinition: true, scopeLine: 968, flags: DIFlagPrototyped, isOptimized: false, unit: !0, templateParams: !493, variables: !7)
!1051 = !DISubroutineType(types: !1052)
!1052 = !{!478, !1053, !1053}
!1053 = !DIDerivedType(tag: DW_TAG_reference_type, baseType: !460, size: 64)
!1054 = !DILocalVariable(name: "__lhs", arg: 1, scope: !1050, file: !276, line: 965, type: !1053)
!1055 = !DILocation(line: 965, column: 63, scope: !1050)
!1056 = !DILocalVariable(name: "__rhs", arg: 2, scope: !1050, file: !276, line: 966, type: !1053)
!1057 = !DILocation(line: 966, column: 56, scope: !1050)
!1058 = !DILocation(line: 968, column: 14, scope: !1050)
!1059 = !DILocation(line: 968, column: 20, scope: !1050)
!1060 = !DILocation(line: 968, column: 29, scope: !1050)
!1061 = !DILocation(line: 968, column: 35, scope: !1050)
!1062 = !DILocation(line: 968, column: 27, scope: !1050)
!1063 = !DILocation(line: 968, column: 7, scope: !1050)
!1064 = distinct !DISubprogram(name: "begin", linkageName: "_ZNSt6vectorIiSaIiEE5beginEv", scope: !209, file: !16, line: 563, type: !269, isLocal: false, isDefinition: true, scopeLine: 564, flags: DIFlagPrototyped, isOptimized: false, unit: !0, declaration: !268, variables: !7)
!1065 = !DILocalVariable(name: "this", arg: 1, scope: !1064, type: !640, flags: DIFlagArtificial | DIFlagObjectPointer)
!1066 = !DILocation(line: 0, scope: !1064)
!1067 = !DILocation(line: 564, column: 31, scope: !1064)
!1068 = !DILocation(line: 564, column: 39, scope: !1064)
!1069 = !DILocation(line: 564, column: 16, scope: !1064)
!1070 = !DILocation(line: 564, column: 9, scope: !1064)
!1071 = distinct !DISubprogram(name: "_M_allocate", linkageName: "_ZNSt12_Vector_baseIiSaIiEE11_M_allocateEm", scope: !17, file: !16, line: 169, type: !195, isLocal: false, isDefinition: true, scopeLine: 170, flags: DIFlagPrototyped, isOptimized: false, unit: !0, declaration: !194, variables: !7)
!1072 = !DILocalVariable(name: "this", arg: 1, scope: !1071, type: !678, flags: DIFlagArtificial | DIFlagObjectPointer)
!1073 = !DILocation(line: 0, scope: !1071)
!1074 = !DILocalVariable(name: "__n", arg: 2, scope: !1071, file: !16, line: 169, type: !79)
!1075 = !DILocation(line: 169, column: 26, scope: !1071)
!1076 = !DILocation(line: 172, column: 9, scope: !1071)
!1077 = !DILocation(line: 172, column: 13, scope: !1071)
!1078 = !DILocation(line: 172, column: 34, scope: !1071)
!1079 = !DILocation(line: 172, column: 43, scope: !1071)
!1080 = !DILocation(line: 172, column: 20, scope: !1071)
!1081 = !DILocation(line: 172, column: 2, scope: !1071)
!1082 = distinct !DISubprogram(name: "__uninitialized_move_if_noexcept_a<int *, int *, std::allocator<int> >", linkageName: "_ZSt34__uninitialized_move_if_noexcept_aIPiS0_SaIiEET0_T_S3_S2_RT1_", scope: !6, file: !1083, line: 305, type: !1084, isLocal: false, isDefinition: true, scopeLine: 309, flags: DIFlagPrototyped, isOptimized: false, unit: !0, templateParams: !1086, variables: !7)
!1083 = !DIFile(filename: "/usr/bin/../lib/gcc/x86_64-linux-gnu/7.4.0/../../../../include/c++/7.4.0/bits/stl_uninitialized.h", directory: "/home/shihua/klee/examples/my_example")
!1084 = !DISubroutineType(types: !1085)
!1085 = !{!38, !38, !38, !38, !127}
!1086 = !{!1087, !709, !1088}
!1087 = !DITemplateTypeParameter(name: "_InputIterator", type: !38)
!1088 = !DITemplateTypeParameter(name: "_Allocator", type: !41)
!1089 = !DILocalVariable(name: "__first", arg: 1, scope: !1082, file: !1083, line: 305, type: !38)
!1090 = !DILocation(line: 305, column: 55, scope: !1082)
!1091 = !DILocalVariable(name: "__last", arg: 2, scope: !1082, file: !1083, line: 306, type: !38)
!1092 = !DILocation(line: 306, column: 27, scope: !1082)
!1093 = !DILocalVariable(name: "__result", arg: 3, scope: !1082, file: !1083, line: 307, type: !38)
!1094 = !DILocation(line: 307, column: 29, scope: !1082)
!1095 = !DILocalVariable(name: "__alloc", arg: 4, scope: !1082, file: !1083, line: 308, type: !127)
!1096 = !DILocation(line: 308, column: 24, scope: !1082)
!1097 = !DILocation(line: 311, column: 3, scope: !1082)
!1098 = !DILocation(line: 312, column: 3, scope: !1082)
!1099 = !DILocation(line: 312, column: 52, scope: !1082)
!1100 = !DILocation(line: 312, column: 62, scope: !1082)
!1101 = !DILocation(line: 310, column: 14, scope: !1082)
!1102 = !DILocation(line: 310, column: 7, scope: !1082)
!1103 = distinct !DISubprogram(name: "base", linkageName: "_ZNK9__gnu_cxx17__normal_iteratorIPiSt6vectorIiSaIiEEE4baseEv", scope: !438, file: !276, line: 847, type: !491, isLocal: false, isDefinition: true, scopeLine: 848, flags: DIFlagPrototyped, isOptimized: false, unit: !0, declaration: !490, variables: !7)
!1104 = !DILocalVariable(name: "this", arg: 1, scope: !1103, type: !1105, flags: DIFlagArtificial | DIFlagObjectPointer)
!1105 = !DIDerivedType(tag: DW_TAG_pointer_type, baseType: !460, size: 64)
!1106 = !DILocation(line: 0, scope: !1103)
!1107 = !DILocation(line: 848, column: 16, scope: !1103)
!1108 = !DILocation(line: 848, column: 9, scope: !1103)
!1109 = distinct !DISubprogram(name: "destroy<int>", linkageName: "_ZNSt16allocator_traitsISaIiEE7destroyIiEEvRS0_PT_", scope: !31, file: !32, line: 486, type: !1110, isLocal: false, isDefinition: true, scopeLine: 487, flags: DIFlagPrototyped, isOptimized: false, unit: !0, templateParams: !1113, declaration: !1112, variables: !7)
!1110 = !DISubroutineType(types: !1111)
!1111 = !{null, !39, !38}
!1112 = !DISubprogram(name: "destroy<int>", linkageName: "_ZNSt16allocator_traitsISaIiEE7destroyIiEEvRS0_PT_", scope: !31, file: !32, line: 486, type: !1110, isLocal: false, isDefinition: false, scopeLine: 486, flags: DIFlagPrototyped | DIFlagStaticMember, isOptimized: false, templateParams: !1113)
!1113 = !{!870}
!1114 = !DILocalVariable(name: "__a", arg: 1, scope: !1109, file: !32, line: 486, type: !39)
!1115 = !DILocation(line: 486, column: 26, scope: !1109)
!1116 = !DILocalVariable(name: "__p", arg: 2, scope: !1109, file: !32, line: 486, type: !38)
!1117 = !DILocation(line: 486, column: 36, scope: !1109)
!1118 = !DILocation(line: 487, column: 4, scope: !1109)
!1119 = !DILocation(line: 487, column: 16, scope: !1109)
!1120 = !DILocation(line: 487, column: 8, scope: !1109)
!1121 = !DILocation(line: 487, column: 22, scope: !1109)
!1122 = distinct !DISubprogram(name: "max_size", linkageName: "_ZNKSt6vectorIiSaIiEE8max_sizeEv", scope: !209, file: !16, line: 675, type: !297, isLocal: false, isDefinition: true, scopeLine: 676, flags: DIFlagPrototyped, isOptimized: false, unit: !0, declaration: !299, variables: !7)
!1123 = !DILocalVariable(name: "this", arg: 1, scope: !1122, type: !1018, flags: DIFlagArtificial | DIFlagObjectPointer)
!1124 = !DILocation(line: 0, scope: !1122)
!1125 = !DILocation(line: 676, column: 40, scope: !1122)
!1126 = !DILocation(line: 676, column: 16, scope: !1122)
!1127 = !DILocation(line: 676, column: 9, scope: !1122)
!1128 = distinct !DISubprogram(name: "size", linkageName: "_ZNKSt6vectorIiSaIiEE4sizeEv", scope: !209, file: !16, line: 670, type: !297, isLocal: false, isDefinition: true, scopeLine: 671, flags: DIFlagPrototyped, isOptimized: false, unit: !0, declaration: !296, variables: !7)
!1129 = !DILocalVariable(name: "this", arg: 1, scope: !1128, type: !1018, flags: DIFlagArtificial | DIFlagObjectPointer)
!1130 = !DILocation(line: 0, scope: !1128)
!1131 = !DILocation(line: 671, column: 32, scope: !1128)
!1132 = !DILocation(line: 671, column: 40, scope: !1128)
!1133 = !DILocation(line: 671, column: 58, scope: !1128)
!1134 = !DILocation(line: 671, column: 66, scope: !1128)
!1135 = !DILocation(line: 671, column: 50, scope: !1128)
!1136 = !DILocation(line: 671, column: 9, scope: !1128)
!1137 = distinct !DISubprogram(name: "max<unsigned long>", linkageName: "_ZSt3maxImERKT_S2_S2_", scope: !6, file: !1138, line: 219, type: !1139, isLocal: false, isDefinition: true, scopeLine: 220, flags: DIFlagPrototyped, isOptimized: false, unit: !0, templateParams: !1143, variables: !7)
!1138 = !DIFile(filename: "/usr/bin/../lib/gcc/x86_64-linux-gnu/7.4.0/../../../../include/c++/7.4.0/bits/stl_algobase.h", directory: "/home/shihua/klee/examples/my_example")
!1139 = !DISubroutineType(types: !1140)
!1140 = !{!1141, !1141, !1141}
!1141 = !DIDerivedType(tag: DW_TAG_reference_type, baseType: !1142, size: 64)
!1142 = !DIDerivedType(tag: DW_TAG_const_type, baseType: !81)
!1143 = !{!1144}
!1144 = !DITemplateTypeParameter(name: "_Tp", type: !81)
!1145 = !DILocalVariable(name: "__a", arg: 1, scope: !1137, file: !1138, line: 219, type: !1141)
!1146 = !DILocation(line: 219, column: 20, scope: !1137)
!1147 = !DILocalVariable(name: "__b", arg: 2, scope: !1137, file: !1138, line: 219, type: !1141)
!1148 = !DILocation(line: 219, column: 36, scope: !1137)
!1149 = !DILocation(line: 224, column: 11, scope: !1150)
!1150 = distinct !DILexicalBlock(scope: !1137, file: !1138, line: 224, column: 11)
!1151 = !DILocation(line: 224, column: 17, scope: !1150)
!1152 = !DILocation(line: 224, column: 15, scope: !1150)
!1153 = !DILocation(line: 224, column: 11, scope: !1137)
!1154 = !DILocation(line: 225, column: 9, scope: !1150)
!1155 = !DILocation(line: 225, column: 2, scope: !1150)
!1156 = !DILocation(line: 226, column: 14, scope: !1137)
!1157 = !DILocation(line: 226, column: 7, scope: !1137)
!1158 = !DILocation(line: 227, column: 5, scope: !1137)
!1159 = distinct !DISubprogram(name: "max_size", linkageName: "_ZNSt16allocator_traitsISaIiEE8max_sizeERKS0_", scope: !31, file: !32, line: 495, type: !111, isLocal: false, isDefinition: true, scopeLine: 496, flags: DIFlagPrototyped, isOptimized: false, unit: !0, declaration: !110, variables: !7)
!1160 = !DILocalVariable(name: "__a", arg: 1, scope: !1159, file: !32, line: 495, type: !114)
!1161 = !DILocation(line: 495, column: 38, scope: !1159)
!1162 = !DILocation(line: 496, column: 16, scope: !1159)
!1163 = !DILocation(line: 496, column: 20, scope: !1159)
!1164 = !DILocation(line: 496, column: 9, scope: !1159)
!1165 = distinct !DISubprogram(name: "_M_get_Tp_allocator", linkageName: "_ZNKSt12_Vector_baseIiSaIiEE19_M_get_Tp_allocatorEv", scope: !17, file: !16, line: 119, type: !161, isLocal: false, isDefinition: true, scopeLine: 120, flags: DIFlagPrototyped, isOptimized: false, unit: !0, declaration: !160, variables: !7)
!1166 = !DILocalVariable(name: "this", arg: 1, scope: !1165, type: !1167, flags: DIFlagArtificial | DIFlagObjectPointer)
!1167 = !DIDerivedType(tag: DW_TAG_pointer_type, baseType: !164, size: 64)
!1168 = !DILocation(line: 0, scope: !1165)
!1169 = !DILocation(line: 120, column: 59, scope: !1165)
!1170 = !DILocation(line: 120, column: 16, scope: !1165)
!1171 = !DILocation(line: 120, column: 9, scope: !1165)
!1172 = distinct !DISubprogram(name: "max_size", linkageName: "_ZNK9__gnu_cxx13new_allocatorIiE8max_sizeEv", scope: !47, file: !48, line: 129, type: !88, isLocal: false, isDefinition: true, scopeLine: 130, flags: DIFlagPrototyped, isOptimized: false, unit: !0, declaration: !87, variables: !7)
!1173 = !DILocalVariable(name: "this", arg: 1, scope: !1172, type: !1174, flags: DIFlagArtificial | DIFlagObjectPointer)
!1174 = !DIDerivedType(tag: DW_TAG_pointer_type, baseType: !58, size: 64)
!1175 = !DILocation(line: 0, scope: !1172)
!1176 = !DILocation(line: 130, column: 9, scope: !1172)
!1177 = distinct !DISubprogram(name: "__normal_iterator", linkageName: "_ZN9__gnu_cxx17__normal_iteratorIPiSt6vectorIiSaIiEEEC2ERKS1_", scope: !438, file: !276, line: 782, type: !446, isLocal: false, isDefinition: true, scopeLine: 783, flags: DIFlagPrototyped, isOptimized: false, unit: !0, declaration: !445, variables: !7)
!1178 = !DILocalVariable(name: "this", arg: 1, scope: !1177, type: !1179, flags: DIFlagArtificial | DIFlagObjectPointer)
!1179 = !DIDerivedType(tag: DW_TAG_pointer_type, baseType: !438, size: 64)
!1180 = !DILocation(line: 0, scope: !1177)
!1181 = !DILocalVariable(name: "__i", arg: 2, scope: !1177, file: !276, line: 782, type: !448)
!1182 = !DILocation(line: 782, column: 42, scope: !1177)
!1183 = !DILocation(line: 783, column: 9, scope: !1177)
!1184 = !DILocation(line: 783, column: 20, scope: !1177)
!1185 = !DILocation(line: 783, column: 27, scope: !1177)
!1186 = distinct !DISubprogram(name: "allocate", linkageName: "_ZNSt16allocator_traitsISaIiEE8allocateERS0_m", scope: !31, file: !32, line: 435, type: !35, isLocal: false, isDefinition: true, scopeLine: 436, flags: DIFlagPrototyped, isOptimized: false, unit: !0, declaration: !34, variables: !7)
!1187 = !DILocalVariable(name: "__a", arg: 1, scope: !1186, file: !32, line: 435, type: !39)
!1188 = !DILocation(line: 435, column: 32, scope: !1186)
!1189 = !DILocalVariable(name: "__n", arg: 2, scope: !1186, file: !32, line: 435, type: !102)
!1190 = !DILocation(line: 435, column: 47, scope: !1186)
!1191 = !DILocation(line: 436, column: 16, scope: !1186)
!1192 = !DILocation(line: 436, column: 29, scope: !1186)
!1193 = !DILocation(line: 436, column: 20, scope: !1186)
!1194 = !DILocation(line: 436, column: 9, scope: !1186)
!1195 = distinct !DISubprogram(name: "allocate", linkageName: "_ZN9__gnu_cxx13new_allocatorIiE8allocateEmPKv", scope: !47, file: !48, line: 99, type: !76, isLocal: false, isDefinition: true, scopeLine: 100, flags: DIFlagPrototyped, isOptimized: false, unit: !0, declaration: !75, variables: !7)
!1196 = !DILocalVariable(name: "this", arg: 1, scope: !1195, type: !701, flags: DIFlagArtificial | DIFlagObjectPointer)
!1197 = !DILocation(line: 0, scope: !1195)
!1198 = !DILocalVariable(name: "__n", arg: 2, scope: !1195, file: !48, line: 99, type: !78)
!1199 = !DILocation(line: 99, column: 26, scope: !1195)
!1200 = !DILocalVariable(arg: 3, scope: !1195, file: !48, line: 99, type: !82)
!1201 = !DILocation(line: 99, column: 43, scope: !1195)
!1202 = !DILocation(line: 101, column: 6, scope: !1203)
!1203 = distinct !DILexicalBlock(scope: !1195, file: !48, line: 101, column: 6)
!1204 = !DILocation(line: 101, column: 18, scope: !1203)
!1205 = !DILocation(line: 101, column: 10, scope: !1203)
!1206 = !DILocation(line: 101, column: 6, scope: !1195)
!1207 = !DILocation(line: 102, column: 4, scope: !1203)
!1208 = !DILocation(line: 111, column: 42, scope: !1195)
!1209 = !DILocation(line: 111, column: 46, scope: !1195)
!1210 = !DILocation(line: 111, column: 27, scope: !1195)
!1211 = !DILocation(line: 111, column: 9, scope: !1195)
!1212 = !DILocation(line: 111, column: 2, scope: !1195)
!1213 = distinct !DISubprogram(name: "__uninitialized_copy_a<std::move_iterator<int *>, int *, int>", linkageName: "_ZSt22__uninitialized_copy_aISt13move_iteratorIPiES1_iET0_T_S4_S3_RSaIT1_E", scope: !6, file: !1083, line: 287, type: !1214, isLocal: false, isDefinition: true, scopeLine: 289, flags: DIFlagPrototyped, isOptimized: false, unit: !0, templateParams: !1216, variables: !7)
!1214 = !DISubroutineType(types: !1215)
!1215 = !{!38, !495, !495, !38, !127}
!1216 = !{!1217, !709, !91}
!1217 = !DITemplateTypeParameter(name: "_InputIterator", type: !495)
!1218 = !DILocalVariable(name: "__first", arg: 1, scope: !1213, file: !1083, line: 287, type: !495)
!1219 = !DILocation(line: 287, column: 43, scope: !1213)
!1220 = !DILocalVariable(name: "__last", arg: 2, scope: !1213, file: !1083, line: 287, type: !495)
!1221 = !DILocation(line: 287, column: 67, scope: !1213)
!1222 = !DILocalVariable(name: "__result", arg: 3, scope: !1213, file: !1083, line: 288, type: !38)
!1223 = !DILocation(line: 288, column: 24, scope: !1213)
!1224 = !DILocalVariable(arg: 4, scope: !1213, file: !1083, line: 288, type: !127)
!1225 = !DILocation(line: 288, column: 49, scope: !1213)
!1226 = !DILocation(line: 289, column: 38, scope: !1213)
!1227 = !DILocation(line: 289, column: 47, scope: !1213)
!1228 = !DILocation(line: 289, column: 55, scope: !1213)
!1229 = !DILocation(line: 289, column: 14, scope: !1213)
!1230 = !DILocation(line: 289, column: 7, scope: !1213)
!1231 = distinct !DISubprogram(name: "__make_move_if_noexcept_iterator<int, std::move_iterator<int *> >", linkageName: "_ZSt32__make_move_if_noexcept_iteratorIiSt13move_iteratorIPiEET0_PT_", scope: !6, file: !276, line: 1224, type: !1232, isLocal: false, isDefinition: true, scopeLine: 1225, flags: DIFlagPrototyped, isOptimized: false, unit: !0, templateParams: !1234, variables: !7)
!1232 = !DISubroutineType(types: !1233)
!1233 = !{!495, !38}
!1234 = !{!91, !1235}
!1235 = !DITemplateTypeParameter(name: "_ReturnType", type: !495)
!1236 = !DILocalVariable(name: "__i", arg: 1, scope: !1231, file: !276, line: 1224, type: !38)
!1237 = !DILocation(line: 1224, column: 43, scope: !1231)
!1238 = !DILocation(line: 1225, column: 26, scope: !1231)
!1239 = !DILocation(line: 1225, column: 14, scope: !1231)
!1240 = !DILocation(line: 1225, column: 7, scope: !1231)
!1241 = distinct !DISubprogram(name: "uninitialized_copy<std::move_iterator<int *>, int *>", linkageName: "_ZSt18uninitialized_copyISt13move_iteratorIPiES1_ET0_T_S4_S3_", scope: !6, file: !1083, line: 115, type: !1242, isLocal: false, isDefinition: true, scopeLine: 117, flags: DIFlagPrototyped, isOptimized: false, unit: !0, templateParams: !1244, variables: !7)
!1242 = !DISubroutineType(types: !1243)
!1243 = !{!38, !495, !495, !38}
!1244 = !{!1217, !709}
!1245 = !DILocalVariable(name: "__first", arg: 1, scope: !1241, file: !1083, line: 115, type: !495)
!1246 = !DILocation(line: 115, column: 39, scope: !1241)
!1247 = !DILocalVariable(name: "__last", arg: 2, scope: !1241, file: !1083, line: 115, type: !495)
!1248 = !DILocation(line: 115, column: 63, scope: !1241)
!1249 = !DILocalVariable(name: "__result", arg: 3, scope: !1241, file: !1083, line: 116, type: !38)
!1250 = !DILocation(line: 116, column: 27, scope: !1241)
!1251 = !DILocalVariable(name: "__assignable", scope: !1241, file: !1083, line: 128, type: !411)
!1252 = !DILocation(line: 128, column: 18, scope: !1241)
!1253 = !DILocation(line: 134, column: 16, scope: !1241)
!1254 = !DILocation(line: 134, column: 25, scope: !1241)
!1255 = !DILocation(line: 134, column: 33, scope: !1241)
!1256 = !DILocation(line: 131, column: 14, scope: !1241)
!1257 = !DILocation(line: 131, column: 7, scope: !1241)
!1258 = distinct !DISubprogram(name: "__uninit_copy<std::move_iterator<int *>, int *>", linkageName: "_ZNSt20__uninitialized_copyILb1EE13__uninit_copyISt13move_iteratorIPiES3_EET0_T_S6_S5_", scope: !1259, file: !1083, line: 99, type: !1242, isLocal: false, isDefinition: true, scopeLine: 101, flags: DIFlagPrototyped, isOptimized: false, unit: !0, templateParams: !1244, declaration: !1262, variables: !7)
!1259 = distinct !DICompositeType(tag: DW_TAG_structure_type, name: "__uninitialized_copy<true>", scope: !6, file: !1083, line: 95, size: 8, elements: !7, templateParams: !1260, identifier: "_ZTSSt20__uninitialized_copyILb1EE")
!1260 = !{!1261}
!1261 = !DITemplateValueParameter(name: "_TrivialValueTypes", type: !131, value: i8 1)
!1262 = !DISubprogram(name: "__uninit_copy<std::move_iterator<int *>, int *>", linkageName: "_ZNSt20__uninitialized_copyILb1EE13__uninit_copyISt13move_iteratorIPiES3_EET0_T_S6_S5_", scope: !1259, file: !1083, line: 99, type: !1242, isLocal: false, isDefinition: false, scopeLine: 99, flags: DIFlagPrototyped | DIFlagStaticMember, isOptimized: false, templateParams: !1244)
!1263 = !DILocalVariable(name: "__first", arg: 1, scope: !1258, file: !1083, line: 99, type: !495)
!1264 = !DILocation(line: 99, column: 38, scope: !1258)
!1265 = !DILocalVariable(name: "__last", arg: 2, scope: !1258, file: !1083, line: 99, type: !495)
!1266 = !DILocation(line: 99, column: 62, scope: !1258)
!1267 = !DILocalVariable(name: "__result", arg: 3, scope: !1258, file: !1083, line: 100, type: !38)
!1268 = !DILocation(line: 100, column: 26, scope: !1258)
!1269 = !DILocation(line: 101, column: 28, scope: !1258)
!1270 = !DILocation(line: 101, column: 37, scope: !1258)
!1271 = !DILocation(line: 101, column: 45, scope: !1258)
!1272 = !DILocation(line: 101, column: 18, scope: !1258)
!1273 = !DILocation(line: 101, column: 11, scope: !1258)
!1274 = distinct !DISubprogram(name: "copy<std::move_iterator<int *>, int *>", linkageName: "_ZSt4copyISt13move_iteratorIPiES1_ET0_T_S4_S3_", scope: !6, file: !1138, line: 446, type: !1242, isLocal: false, isDefinition: true, scopeLine: 447, flags: DIFlagPrototyped, isOptimized: false, unit: !0, templateParams: !1275, variables: !7)
!1275 = !{!1276, !1277}
!1276 = !DITemplateTypeParameter(name: "_II", type: !495)
!1277 = !DITemplateTypeParameter(name: "_OI", type: !38)
!1278 = !DILocalVariable(name: "__first", arg: 1, scope: !1274, file: !1138, line: 446, type: !495)
!1279 = !DILocation(line: 446, column: 14, scope: !1274)
!1280 = !DILocalVariable(name: "__last", arg: 2, scope: !1274, file: !1138, line: 446, type: !495)
!1281 = !DILocation(line: 446, column: 27, scope: !1274)
!1282 = !DILocalVariable(name: "__result", arg: 3, scope: !1274, file: !1138, line: 446, type: !38)
!1283 = !DILocation(line: 446, column: 39, scope: !1274)
!1284 = !DILocation(line: 455, column: 27, scope: !1274)
!1285 = !DILocation(line: 455, column: 9, scope: !1274)
!1286 = !DILocation(line: 455, column: 55, scope: !1274)
!1287 = !DILocation(line: 455, column: 37, scope: !1274)
!1288 = !DILocation(line: 456, column: 9, scope: !1274)
!1289 = !DILocation(line: 454, column: 15, scope: !1274)
!1290 = !DILocation(line: 454, column: 7, scope: !1274)
!1291 = distinct !DISubprogram(name: "__copy_move_a2<true, int *, int *>", linkageName: "_ZSt14__copy_move_a2ILb1EPiS0_ET1_T0_S2_S1_", scope: !6, file: !1138, line: 420, type: !1292, isLocal: false, isDefinition: true, scopeLine: 421, flags: DIFlagPrototyped, isOptimized: false, unit: !0, templateParams: !1294, variables: !7)
!1292 = !DISubroutineType(types: !1293)
!1293 = !{!38, !38, !38, !38}
!1294 = !{!1295, !1296, !1277}
!1295 = !DITemplateValueParameter(name: "_IsMove", type: !131, value: i8 1)
!1296 = !DITemplateTypeParameter(name: "_II", type: !38)
!1297 = !DILocalVariable(name: "__first", arg: 1, scope: !1291, file: !1138, line: 420, type: !38)
!1298 = !DILocation(line: 420, column: 24, scope: !1291)
!1299 = !DILocalVariable(name: "__last", arg: 2, scope: !1291, file: !1138, line: 420, type: !38)
!1300 = !DILocation(line: 420, column: 37, scope: !1291)
!1301 = !DILocalVariable(name: "__result", arg: 3, scope: !1291, file: !1138, line: 420, type: !38)
!1302 = !DILocation(line: 420, column: 49, scope: !1291)
!1303 = !DILocation(line: 422, column: 64, scope: !1291)
!1304 = !DILocation(line: 422, column: 46, scope: !1291)
!1305 = !DILocation(line: 423, column: 29, scope: !1291)
!1306 = !DILocation(line: 423, column: 11, scope: !1291)
!1307 = !DILocation(line: 424, column: 29, scope: !1291)
!1308 = !DILocation(line: 424, column: 11, scope: !1291)
!1309 = !DILocation(line: 422, column: 18, scope: !1291)
!1310 = !DILocation(line: 422, column: 7, scope: !1291)
!1311 = distinct !DISubprogram(name: "__miter_base<int *>", linkageName: "_ZSt12__miter_baseIPiEDTcl12__miter_basecldtfp_4baseEEESt13move_iteratorIT_E", scope: !6, file: !276, line: 1244, type: !1312, isLocal: false, isDefinition: true, scopeLine: 1246, flags: DIFlagPrototyped, isOptimized: false, unit: !0, templateParams: !457, variables: !7)
!1312 = !DISubroutineType(types: !1313)
!1313 = !{!38, !495}
!1314 = !DILocalVariable(name: "__it", arg: 1, scope: !1311, file: !276, line: 1244, type: !495)
!1315 = !DILocation(line: 1244, column: 43, scope: !1311)
!1316 = !DILocation(line: 1246, column: 32, scope: !1311)
!1317 = !DILocation(line: 1246, column: 14, scope: !1311)
!1318 = !DILocation(line: 1246, column: 7, scope: !1311)
!1319 = distinct !DISubprogram(name: "__copy_move_a<true, int *, int *>", linkageName: "_ZSt13__copy_move_aILb1EPiS0_ET1_T0_S2_S1_", scope: !6, file: !1138, line: 375, type: !1292, isLocal: false, isDefinition: true, scopeLine: 376, flags: DIFlagPrototyped, isOptimized: false, unit: !0, templateParams: !1294, variables: !7)
!1320 = !DILocalVariable(name: "__first", arg: 1, scope: !1319, file: !1138, line: 375, type: !38)
!1321 = !DILocation(line: 375, column: 23, scope: !1319)
!1322 = !DILocalVariable(name: "__last", arg: 2, scope: !1319, file: !1138, line: 375, type: !38)
!1323 = !DILocation(line: 375, column: 36, scope: !1319)
!1324 = !DILocalVariable(name: "__result", arg: 3, scope: !1319, file: !1138, line: 375, type: !38)
!1325 = !DILocation(line: 375, column: 48, scope: !1319)
!1326 = !DILocalVariable(name: "__simple", scope: !1319, file: !1138, line: 380, type: !411)
!1327 = !DILocation(line: 380, column: 18, scope: !1319)
!1328 = !DILocation(line: 386, column: 45, scope: !1319)
!1329 = !DILocation(line: 386, column: 54, scope: !1319)
!1330 = !DILocation(line: 386, column: 62, scope: !1319)
!1331 = !DILocation(line: 385, column: 14, scope: !1319)
!1332 = !DILocation(line: 385, column: 7, scope: !1319)
!1333 = distinct !DISubprogram(name: "__niter_base<int *>", linkageName: "_ZSt12__niter_baseIPiET_S1_", scope: !6, file: !1138, line: 277, type: !1334, isLocal: false, isDefinition: true, scopeLine: 278, flags: DIFlagPrototyped, isOptimized: false, unit: !0, templateParams: !457, variables: !7)
!1334 = !DISubroutineType(types: !1335)
!1335 = !{!38, !38}
!1336 = !DILocalVariable(name: "__it", arg: 1, scope: !1333, file: !1138, line: 277, type: !38)
!1337 = !DILocation(line: 277, column: 28, scope: !1333)
!1338 = !DILocation(line: 278, column: 14, scope: !1333)
!1339 = !DILocation(line: 278, column: 7, scope: !1333)
!1340 = distinct !DISubprogram(name: "__copy_m<int>", linkageName: "_ZNSt11__copy_moveILb1ELb1ESt26random_access_iterator_tagE8__copy_mIiEEPT_PKS3_S6_S4_", scope: !1341, file: !1138, line: 357, type: !1354, isLocal: false, isDefinition: true, scopeLine: 358, flags: DIFlagPrototyped, isOptimized: false, unit: !0, templateParams: !90, declaration: !1356, variables: !7)
!1341 = distinct !DICompositeType(tag: DW_TAG_structure_type, name: "__copy_move<true, true, std::random_access_iterator_tag>", scope: !6, file: !1138, line: 353, size: 8, elements: !7, templateParams: !1342, identifier: "_ZTSSt11__copy_moveILb1ELb1ESt26random_access_iterator_tagE")
!1342 = !{!755, !755, !1343}
!1343 = !DITemplateTypeParameter(type: !1344)
!1344 = distinct !DICompositeType(tag: DW_TAG_structure_type, name: "random_access_iterator_tag", scope: !6, file: !455, line: 103, size: 8, elements: !1345, identifier: "_ZTSSt26random_access_iterator_tag")
!1345 = !{!1346}
!1346 = !DIDerivedType(tag: DW_TAG_inheritance, scope: !1344, baseType: !1347)
!1347 = distinct !DICompositeType(tag: DW_TAG_structure_type, name: "bidirectional_iterator_tag", scope: !6, file: !455, line: 99, size: 8, elements: !1348, identifier: "_ZTSSt26bidirectional_iterator_tag")
!1348 = !{!1349}
!1349 = !DIDerivedType(tag: DW_TAG_inheritance, scope: !1347, baseType: !1350)
!1350 = distinct !DICompositeType(tag: DW_TAG_structure_type, name: "forward_iterator_tag", scope: !6, file: !455, line: 95, size: 8, elements: !1351, identifier: "_ZTSSt20forward_iterator_tag")
!1351 = !{!1352}
!1352 = !DIDerivedType(tag: DW_TAG_inheritance, scope: !1350, baseType: !1353)
!1353 = distinct !DICompositeType(tag: DW_TAG_structure_type, name: "input_iterator_tag", scope: !6, file: !455, line: 89, size: 8, elements: !7, identifier: "_ZTSSt18input_iterator_tag")
!1354 = !DISubroutineType(types: !1355)
!1355 = !{!38, !71, !71, !38}
!1356 = !DISubprogram(name: "__copy_m<int>", linkageName: "_ZNSt11__copy_moveILb1ELb1ESt26random_access_iterator_tagE8__copy_mIiEEPT_PKS3_S6_S4_", scope: !1341, file: !1138, line: 357, type: !1354, isLocal: false, isDefinition: false, scopeLine: 357, flags: DIFlagPrototyped | DIFlagStaticMember, isOptimized: false, templateParams: !90)
!1357 = !DILocalVariable(name: "__first", arg: 1, scope: !1340, file: !1138, line: 357, type: !71)
!1358 = !DILocation(line: 357, column: 29, scope: !1340)
!1359 = !DILocalVariable(name: "__last", arg: 2, scope: !1340, file: !1138, line: 357, type: !71)
!1360 = !DILocation(line: 357, column: 49, scope: !1340)
!1361 = !DILocalVariable(name: "__result", arg: 3, scope: !1340, file: !1138, line: 357, type: !38)
!1362 = !DILocation(line: 357, column: 62, scope: !1340)
!1363 = !DILocalVariable(name: "_Num", scope: !1340, file: !1138, line: 366, type: !1364)
!1364 = !DIDerivedType(tag: DW_TAG_const_type, baseType: !480)
!1365 = !DILocation(line: 366, column: 20, scope: !1340)
!1366 = !DILocation(line: 366, column: 27, scope: !1340)
!1367 = !DILocation(line: 366, column: 36, scope: !1340)
!1368 = !DILocation(line: 366, column: 34, scope: !1340)
!1369 = !DILocation(line: 367, column: 8, scope: !1370)
!1370 = distinct !DILexicalBlock(scope: !1340, file: !1138, line: 367, column: 8)
!1371 = !DILocation(line: 367, column: 8, scope: !1340)
!1372 = !DILocation(line: 368, column: 24, scope: !1370)
!1373 = !DILocation(line: 368, column: 6, scope: !1370)
!1374 = !DILocation(line: 368, column: 34, scope: !1370)
!1375 = !DILocation(line: 368, column: 57, scope: !1370)
!1376 = !DILocation(line: 368, column: 55, scope: !1370)
!1377 = !DILocation(line: 369, column: 11, scope: !1340)
!1378 = !DILocation(line: 369, column: 22, scope: !1340)
!1379 = !DILocation(line: 369, column: 20, scope: !1340)
!1380 = !DILocation(line: 369, column: 4, scope: !1340)
!1381 = distinct !DISubprogram(name: "__miter_base<int *>", linkageName: "_ZSt12__miter_baseIPiET_S1_", scope: !6, file: !4, line: 408, type: !1334, isLocal: false, isDefinition: true, scopeLine: 409, flags: DIFlagPrototyped, isOptimized: false, unit: !0, templateParams: !457, variables: !7)
!1382 = !DILocalVariable(name: "__it", arg: 1, scope: !1381, file: !4, line: 408, type: !38)
!1383 = !DILocation(line: 408, column: 28, scope: !1381)
!1384 = !DILocation(line: 409, column: 14, scope: !1381)
!1385 = !DILocation(line: 409, column: 7, scope: !1381)
!1386 = distinct !DISubprogram(name: "base", linkageName: "_ZNKSt13move_iteratorIPiE4baseEv", scope: !495, file: !276, line: 1048, type: !507, isLocal: false, isDefinition: true, scopeLine: 1049, flags: DIFlagPrototyped, isOptimized: false, unit: !0, declaration: !506, variables: !7)
!1387 = !DILocalVariable(name: "this", arg: 1, scope: !1386, type: !1388, flags: DIFlagArtificial | DIFlagObjectPointer)
!1388 = !DIDerivedType(tag: DW_TAG_pointer_type, baseType: !510, size: 64)
!1389 = !DILocation(line: 0, scope: !1386)
!1390 = !DILocation(line: 1049, column: 16, scope: !1386)
!1391 = !DILocation(line: 1049, column: 9, scope: !1386)
!1392 = distinct !DISubprogram(name: "move_iterator", linkageName: "_ZNSt13move_iteratorIPiEC2ES0_", scope: !495, file: !276, line: 1039, type: !503, isLocal: false, isDefinition: true, scopeLine: 1040, flags: DIFlagPrototyped, isOptimized: false, unit: !0, declaration: !502, variables: !7)
!1393 = !DILocalVariable(name: "this", arg: 1, scope: !1392, type: !1394, flags: DIFlagArtificial | DIFlagObjectPointer)
!1394 = !DIDerivedType(tag: DW_TAG_pointer_type, baseType: !495, size: 64)
!1395 = !DILocation(line: 0, scope: !1392)
!1396 = !DILocalVariable(name: "__i", arg: 2, scope: !1392, file: !276, line: 1039, type: !505)
!1397 = !DILocation(line: 1039, column: 35, scope: !1392)
!1398 = !DILocation(line: 1040, column: 9, scope: !1392)
!1399 = !DILocation(line: 1040, column: 20, scope: !1392)
!1400 = !DILocation(line: 1040, column: 27, scope: !1392)
!1401 = distinct !DISubprogram(name: "destroy<int>", linkageName: "_ZN9__gnu_cxx13new_allocatorIiE7destroyIiEEvPT_", scope: !47, file: !48, line: 140, type: !1402, isLocal: false, isDefinition: true, scopeLine: 140, flags: DIFlagPrototyped, isOptimized: false, unit: !0, templateParams: !1113, declaration: !1404, variables: !7)
!1402 = !DISubroutineType(types: !1403)
!1403 = !{null, !53, !38}
!1404 = !DISubprogram(name: "destroy<int>", linkageName: "_ZN9__gnu_cxx13new_allocatorIiE7destroyIiEEvPT_", scope: !47, file: !48, line: 140, type: !1402, isLocal: false, isDefinition: false, scopeLine: 140, flags: DIFlagPublic | DIFlagPrototyped, isOptimized: false, templateParams: !1113)
!1405 = !DILocalVariable(name: "this", arg: 1, scope: !1401, type: !701, flags: DIFlagArtificial | DIFlagObjectPointer)
!1406 = !DILocation(line: 0, scope: !1401)
!1407 = !DILocalVariable(name: "__p", arg: 2, scope: !1401, file: !48, line: 140, type: !38)
!1408 = !DILocation(line: 140, column: 15, scope: !1401)
!1409 = !DILocation(line: 140, column: 35, scope: !1401)
!1410 = distinct !DISubprogram(name: "_M_range_check", linkageName: "_ZNKSt6vectorIiSaIiEE14_M_range_checkEm", scope: !209, file: !16, line: 822, type: !326, isLocal: false, isDefinition: true, scopeLine: 823, flags: DIFlagPrototyped, isOptimized: false, unit: !0, declaration: !325, variables: !7)
!1411 = !DILocalVariable(name: "this", arg: 1, scope: !1410, type: !1018, flags: DIFlagArtificial | DIFlagObjectPointer)
!1412 = !DILocation(line: 0, scope: !1410)
!1413 = !DILocalVariable(name: "__n", arg: 2, scope: !1410, file: !16, line: 822, type: !206)
!1414 = !DILocation(line: 822, column: 32, scope: !1410)
!1415 = !DILocation(line: 824, column: 6, scope: !1416)
!1416 = distinct !DILexicalBlock(scope: !1410, file: !16, line: 824, column: 6)
!1417 = !DILocation(line: 824, column: 19, scope: !1416)
!1418 = !DILocation(line: 824, column: 10, scope: !1416)
!1419 = !DILocation(line: 824, column: 6, scope: !1410)
!1420 = !DILocation(line: 828, column: 8, scope: !1416)
!1421 = !DILocation(line: 828, column: 19, scope: !1416)
!1422 = !DILocation(line: 825, column: 4, scope: !1416)
!1423 = !DILocation(line: 829, column: 7, scope: !1410)
!1424 = distinct !DISubprogram(name: "operator[]", linkageName: "_ZNSt6vectorIiSaIiEEixEm", scope: !209, file: !16, line: 795, type: !311, isLocal: false, isDefinition: true, scopeLine: 796, flags: DIFlagPrototyped, isOptimized: false, unit: !0, declaration: !310, variables: !7)
!1425 = !DILocalVariable(name: "this", arg: 1, scope: !1424, type: !640, flags: DIFlagArtificial | DIFlagObjectPointer)
!1426 = !DILocation(line: 0, scope: !1424)
!1427 = !DILocalVariable(name: "__n", arg: 2, scope: !1424, file: !16, line: 795, type: !206)
!1428 = !DILocation(line: 795, column: 28, scope: !1424)
!1429 = !DILocation(line: 798, column: 17, scope: !1424)
!1430 = !DILocation(line: 798, column: 25, scope: !1424)
!1431 = !DILocation(line: 798, column: 36, scope: !1424)
!1432 = !DILocation(line: 798, column: 34, scope: !1424)
!1433 = !DILocation(line: 798, column: 2, scope: !1424)
!1434 = distinct !DISubprogram(name: "klee_int", scope: !613, file: !613, line: 13, type: !1435, isLocal: false, isDefinition: true, scopeLine: 13, flags: DIFlagPrototyped, isOptimized: false, unit: !612, variables: !7)
!1435 = !DISubroutineType(types: !1436)
!1436 = !{!10, !390}
!1437 = !DILocalVariable(name: "name", arg: 1, scope: !1434, file: !613, line: 13, type: !390)
!1438 = !DILocation(line: 13, column: 26, scope: !1434)
!1439 = !DILocalVariable(name: "x", scope: !1434, file: !613, line: 14, type: !10)
!1440 = !DILocation(line: 14, column: 7, scope: !1434)
!1441 = !DILocation(line: 15, column: 22, scope: !1434)
!1442 = !DILocation(line: 15, column: 36, scope: !1434)
!1443 = !DILocation(line: 15, column: 3, scope: !1434)
!1444 = !DILocation(line: 16, column: 10, scope: !1434)
!1445 = !DILocation(line: 16, column: 3, scope: !1434)
!1446 = distinct !DISubprogram(name: "memcpy", scope: !615, file: !615, line: 12, type: !1447, isLocal: false, isDefinition: true, scopeLine: 12, flags: DIFlagPrototyped, isOptimized: false, unit: !614, variables: !7)
!1447 = !DISubroutineType(types: !1448)
!1448 = !{!205, !205, !82, !1449}
!1449 = !DIDerivedType(tag: DW_TAG_typedef, name: "size_t", file: !1450, line: 62, baseType: !81)
!1450 = !DIFile(filename: "/usr/lib/llvm-6.0/lib/clang/6.0.0/include/stddef.h", directory: "/home/shihua/klee/build/runtime/FreeStanding")
!1451 = !DILocalVariable(name: "destaddr", arg: 1, scope: !1446, file: !615, line: 12, type: !205)
!1452 = !DILocation(line: 12, column: 20, scope: !1446)
!1453 = !DILocalVariable(name: "srcaddr", arg: 2, scope: !1446, file: !615, line: 12, type: !82)
!1454 = !DILocation(line: 12, column: 42, scope: !1446)
!1455 = !DILocalVariable(name: "len", arg: 3, scope: !1446, file: !615, line: 12, type: !1449)
!1456 = !DILocation(line: 12, column: 58, scope: !1446)
!1457 = !DILocalVariable(name: "dest", scope: !1446, file: !615, line: 13, type: !626)
!1458 = !DILocation(line: 13, column: 9, scope: !1446)
!1459 = !DILocation(line: 13, column: 16, scope: !1446)
!1460 = !DILocalVariable(name: "src", scope: !1446, file: !615, line: 14, type: !390)
!1461 = !DILocation(line: 14, column: 15, scope: !1446)
!1462 = !DILocation(line: 14, column: 21, scope: !1446)
!1463 = !DILocation(line: 16, column: 3, scope: !1446)
!1464 = !DILocation(line: 16, column: 13, scope: !1446)
!1465 = !DILocation(line: 16, column: 16, scope: !1446)
!1466 = !DILocation(line: 17, column: 19, scope: !1446)
!1467 = !DILocation(line: 17, column: 15, scope: !1446)
!1468 = !DILocation(line: 17, column: 10, scope: !1446)
!1469 = !DILocation(line: 17, column: 13, scope: !1446)
